
ONTVANGER.elf:     file format elf32-avr

Sections:
Idx Name          Size      VMA       LMA       File off  Algn
  0 .data         0000001a  00800100  00001a86  00001b1a  2**0
                  CONTENTS, ALLOC, LOAD, DATA
  1 .text         00001a86  00000000  00000000  00000094  2**1
                  CONTENTS, ALLOC, LOAD, READONLY, CODE
  2 .bss          0000017c  0080011a  0080011a  00001b34  2**0
                  ALLOC
  3 .stab         00000d08  00000000  00000000  00001b34  2**2
                  CONTENTS, READONLY, DEBUGGING
  4 .stabstr      00000272  00000000  00000000  0000283c  2**0
                  CONTENTS, READONLY, DEBUGGING
  5 .comment      0000002f  00000000  00000000  00002aae  2**0
                  CONTENTS, READONLY
  6 .debug_aranges 000003c0  00000000  00000000  00002add  2**0
                  CONTENTS, READONLY, DEBUGGING
  7 .debug_info   00003a7c  00000000  00000000  00002e9d  2**0
                  CONTENTS, READONLY, DEBUGGING
  8 .debug_abbrev 0000126f  00000000  00000000  00006919  2**0
                  CONTENTS, READONLY, DEBUGGING
  9 .debug_line   000026a8  00000000  00000000  00007b88  2**0
                  CONTENTS, READONLY, DEBUGGING
 10 .debug_frame  00000924  00000000  00000000  0000a230  2**2
                  CONTENTS, READONLY, DEBUGGING
 11 .debug_str    00000e4d  00000000  00000000  0000ab54  2**0
                  CONTENTS, READONLY, DEBUGGING
 12 .debug_loc    000022cd  00000000  00000000  0000b9a1  2**0
                  CONTENTS, READONLY, DEBUGGING
 13 .debug_ranges 00000388  00000000  00000000  0000dc6e  2**0
                  CONTENTS, READONLY, DEBUGGING

Disassembly of section .text:

00000000 <__vectors>:
       0:	c3 c2       	rjmp	.+1414   	; 0x588 <__ctors_end>
       2:	00 00       	nop
       4:	0c 94 ba 0a 	jmp	0x1574	; 0x1574 <__vector_1>
       8:	db c2       	rjmp	.+1462   	; 0x5c0 <__bad_interrupt>
       a:	00 00       	nop
       c:	d9 c2       	rjmp	.+1458   	; 0x5c0 <__bad_interrupt>
       e:	00 00       	nop
      10:	d7 c2       	rjmp	.+1454   	; 0x5c0 <__bad_interrupt>
      12:	00 00       	nop
      14:	d5 c2       	rjmp	.+1450   	; 0x5c0 <__bad_interrupt>
      16:	00 00       	nop
      18:	d3 c2       	rjmp	.+1446   	; 0x5c0 <__bad_interrupt>
      1a:	00 00       	nop
      1c:	32 c7       	rjmp	.+3684   	; 0xe82 <__vector_7>
      1e:	00 00       	nop
      20:	cf c2       	rjmp	.+1438   	; 0x5c0 <__bad_interrupt>
      22:	00 00       	nop
      24:	cd c2       	rjmp	.+1434   	; 0x5c0 <__bad_interrupt>
      26:	00 00       	nop
      28:	cb c2       	rjmp	.+1430   	; 0x5c0 <__bad_interrupt>
      2a:	00 00       	nop
      2c:	c9 c2       	rjmp	.+1426   	; 0x5c0 <__bad_interrupt>
      2e:	00 00       	nop
      30:	c7 c2       	rjmp	.+1422   	; 0x5c0 <__bad_interrupt>
      32:	00 00       	nop
      34:	c5 c2       	rjmp	.+1418   	; 0x5c0 <__bad_interrupt>
      36:	00 00       	nop
      38:	4d c3       	rjmp	.+1690   	; 0x6d4 <__vector_14>
      3a:	00 00       	nop
      3c:	c1 c2       	rjmp	.+1410   	; 0x5c0 <__bad_interrupt>
      3e:	00 00       	nop
      40:	bf c2       	rjmp	.+1406   	; 0x5c0 <__bad_interrupt>
      42:	00 00       	nop
      44:	bd c2       	rjmp	.+1402   	; 0x5c0 <__bad_interrupt>
      46:	00 00       	nop
      48:	0c 94 8e 0c 	jmp	0x191c	; 0x191c <__vector_18>
      4c:	0c 94 c3 0c 	jmp	0x1986	; 0x1986 <__vector_19>
      50:	b7 c2       	rjmp	.+1390   	; 0x5c0 <__bad_interrupt>
      52:	00 00       	nop
      54:	b5 c2       	rjmp	.+1386   	; 0x5c0 <__bad_interrupt>
      56:	00 00       	nop
      58:	b3 c2       	rjmp	.+1382   	; 0x5c0 <__bad_interrupt>
      5a:	00 00       	nop
      5c:	b1 c2       	rjmp	.+1378   	; 0x5c0 <__bad_interrupt>
      5e:	00 00       	nop
      60:	af c2       	rjmp	.+1374   	; 0x5c0 <__bad_interrupt>
      62:	00 00       	nop
      64:	ad c2       	rjmp	.+1370   	; 0x5c0 <__bad_interrupt>
	...

00000068 <_ZL16icon_led_numbers>:
      68:	0c 0b 0a 0f 0e 0d 07 08 09 02 01 00                 ............

00000074 <_ZL22sound_pattern_doorbell>:
      74:	dc 05 00 00 f4 01 00 00 00 00 00 00 c8 00 00 00     ................
      84:	b0 04 00 00 f4 01 00 00 00 00 00 00 e8 03 00 00     ................
      94:	dc 05 00 00 f4 01 00 00 00 00 00 00 c8 00 00 00     ................
      a4:	b0 04 00 00 f4 01 00 00 00 00 00 00 dc 05 00 00     ................

000000b4 <_ZL19sound_pattern_phone>:
      b4:	e8 03 00 00 28 00 00 00 ee 02 00 00 28 00 00 00     ....(.......(...
      c4:	e8 03 00 00 28 00 00 00 ee 02 00 00 28 00 00 00     ....(.......(...
      d4:	e8 03 00 00 28 00 00 00 ee 02 00 00 28 00 00 00     ....(.......(...
      e4:	e8 03 00 00 28 00 00 00 ee 02 00 00 28 00 00 00     ....(.......(...
      f4:	e8 03 00 00 28 00 00 00 ee 02 00 00 28 00 00 00     ....(.......(...
     104:	e8 03 00 00 28 00 00 00 ee 02 00 00 28 00 00 00     ....(.......(...
     114:	e8 03 00 00 28 00 00 00 ee 02 00 00 28 00 00 00     ....(.......(...
     124:	e8 03 00 00 28 00 00 00 ee 02 00 00 28 00 00 00     ....(.......(...
     134:	e8 03 00 00 28 00 00 00 ee 02 00 00 28 00 00 00     ....(.......(...
     144:	e8 03 00 00 28 00 00 00 ee 02 00 00 28 00 00 00     ....(.......(...
     154:	e8 03 00 00 28 00 00 00 ee 02 00 00 28 00 00 00     ....(.......(...
     164:	e8 03 00 00 28 00 00 00 ee 02 00 00 28 00 00 00     ....(.......(...
     174:	e8 03 00 00 28 00 00 00 ee 02 00 00 28 00 00 00     ....(.......(...
     184:	e8 03 00 00 28 00 00 00 ee 02 00 00 28 00 00 00     ....(.......(...
     194:	e8 03 00 00 28 00 00 00 ee 02 00 00 28 00 00 00     ....(.......(...
     1a4:	00 00 00 00 e8 03 00 00 e8 03 00 00 28 00 00 00     ............(...
     1b4:	ee 02 00 00 28 00 00 00 e8 03 00 00 28 00 00 00     ....(.......(...
     1c4:	ee 02 00 00 28 00 00 00 e8 03 00 00 28 00 00 00     ....(.......(...
     1d4:	ee 02 00 00 28 00 00 00 e8 03 00 00 28 00 00 00     ....(.......(...
     1e4:	ee 02 00 00 28 00 00 00 e8 03 00 00 28 00 00 00     ....(.......(...
     1f4:	ee 02 00 00 28 00 00 00 e8 03 00 00 28 00 00 00     ....(.......(...
     204:	ee 02 00 00 28 00 00 00 e8 03 00 00 28 00 00 00     ....(.......(...
     214:	ee 02 00 00 28 00 00 00 e8 03 00 00 28 00 00 00     ....(.......(...
     224:	ee 02 00 00 28 00 00 00 e8 03 00 00 28 00 00 00     ....(.......(...
     234:	ee 02 00 00 28 00 00 00 e8 03 00 00 28 00 00 00     ....(.......(...
     244:	ee 02 00 00 28 00 00 00 e8 03 00 00 28 00 00 00     ....(.......(...
     254:	ee 02 00 00 28 00 00 00 e8 03 00 00 28 00 00 00     ....(.......(...
     264:	ee 02 00 00 28 00 00 00 e8 03 00 00 28 00 00 00     ....(.......(...
     274:	ee 02 00 00 28 00 00 00 e8 03 00 00 28 00 00 00     ....(.......(...
     284:	ee 02 00 00 28 00 00 00 e8 03 00 00 28 00 00 00     ....(.......(...
     294:	ee 02 00 00 28 00 00 00 00 00 00 00 e8 03 00 00     ....(...........
     2a4:	e8 03 00 00 28 00 00 00 ee 02 00 00 28 00 00 00     ....(.......(...
     2b4:	e8 03 00 00 28 00 00 00 ee 02 00 00 28 00 00 00     ....(.......(...
     2c4:	e8 03 00 00 28 00 00 00 ee 02 00 00 28 00 00 00     ....(.......(...
     2d4:	e8 03 00 00 28 00 00 00 ee 02 00 00 28 00 00 00     ....(.......(...
     2e4:	e8 03 00 00 28 00 00 00 ee 02 00 00 28 00 00 00     ....(.......(...
     2f4:	e8 03 00 00 28 00 00 00 ee 02 00 00 28 00 00 00     ....(.......(...
     304:	e8 03 00 00 28 00 00 00 ee 02 00 00 28 00 00 00     ....(.......(...
     314:	e8 03 00 00 28 00 00 00 ee 02 00 00 28 00 00 00     ....(.......(...
     324:	e8 03 00 00 28 00 00 00 ee 02 00 00 28 00 00 00     ....(.......(...
     334:	e8 03 00 00 28 00 00 00 ee 02 00 00 28 00 00 00     ....(.......(...
     344:	e8 03 00 00 28 00 00 00 ee 02 00 00 28 00 00 00     ....(.......(...
     354:	e8 03 00 00 28 00 00 00 ee 02 00 00 28 00 00 00     ....(.......(...
     364:	e8 03 00 00 28 00 00 00 ee 02 00 00 28 00 00 00     ....(.......(...
     374:	e8 03 00 00 28 00 00 00 ee 02 00 00 28 00 00 00     ....(.......(...
     384:	e8 03 00 00 28 00 00 00 ee 02 00 00 28 00 00 00     ....(.......(...
     394:	00 00 00 00 e8 03 00 00 00 00 00 00 00 00 00 00     ................
	...

000003b4 <_ZL18sound_pattern_fire>:
     3b4:	d0 07 00 00 2c 01 00 00 00 00 00 00 2c 01 00 00     ....,.......,...
     3c4:	d0 07 00 00 2c 01 00 00 00 00 00 00 2c 01 00 00     ....,.......,...
     3d4:	d0 07 00 00 2c 01 00 00 00 00 00 00 2c 01 00 00     ....,.......,...
     3e4:	d0 07 00 00 2c 01 00 00 00 00 00 00 2c 01 00 00     ....,.......,...
     3f4:	d0 07 00 00 2c 01 00 00 00 00 00 00 2c 01 00 00     ....,.......,...
     404:	d0 07 00 00 2c 01 00 00 00 00 00 00 2c 01 00 00     ....,.......,...
     414:	d0 07 00 00 2c 01 00 00 00 00 00 00 2c 01 00 00     ....,.......,...
     424:	d0 07 00 00 2c 01 00 00 00 00 00 00 2c 01 00 00     ....,.......,...

00000434 <_ZL18sound_pattern_help>:
     434:	bf 04 00 00 2c 01 00 00 a5 05 00 00 2c 01 00 00     ....,.......,...
     444:	1c 07 00 00 2c 01 00 00 a5 05 00 00 2c 01 00 00     ....,.......,...
     454:	bf 04 00 00 2c 01 00 00 a5 05 00 00 2c 01 00 00     ....,.......,...
     464:	1c 07 00 00 2c 01 00 00 a5 05 00 00 2c 01 00 00     ....,.......,...
     474:	00 00 00 00 e8 03 00 00                             ........

0000047c <_ZL13flash_pattern>:
     47c:	ff ff ff ff c8 00 00 00 00 00 00 00 c8 00 00 00     ................
     48c:	ff ff ff ff c8 00 00 00 00 00 00 00 c8 00 00 00     ................
     49c:	ff ff ff ff c8 00 00 00 00 00 00 00 c8 00 00 00     ................
     4ac:	ff ff ff ff c8 00 00 00 00 00 00 00 c8 00 00 00     ................
     4bc:	00 ff 00 ff 32 00 00 00 00 00 00 00 32 00 00 00     ....2.......2...
     4cc:	00 ff 00 ff 32 00 00 00 00 00 00 00 32 00 00 00     ....2.......2...
     4dc:	00 ff 00 ff 32 00 00 00 00 00 00 00 32 00 00 00     ....2.......2...
     4ec:	ff 00 ff 00 32 00 00 00 00 00 00 00 32 00 00 00     ....2.......2...
     4fc:	ff 00 ff 00 32 00 00 00 00 00 00 00 32 00 00 00     ....2.......2...
     50c:	ff 00 ff 00 32 00 00 00 00 00 00 00 32 00 00 00     ....2.......2...
     51c:	00 ff 00 ff 32 00 00 00 00 00 00 00 32 00 00 00     ....2.......2...
     52c:	00 ff 00 ff 32 00 00 00 00 00 00 00 32 00 00 00     ....2.......2...
     53c:	00 ff 00 ff 32 00 00 00 00 00 00 00 32 00 00 00     ....2.......2...
     54c:	ff 00 ff 00 32 00 00 00 00 00 00 00 32 00 00 00     ....2.......2...
     55c:	ff 00 ff 00 32 00 00 00 00 00 00 00 32 00 00 00     ....2.......2...
     56c:	ff 00 ff 00 32 00 00 00 00 00 00 00 32 00 00 00     ....2.......2...

0000057c <_ZL11icon_colors>:
     57c:	3d f5 00 00 b8 f5 ff 00 00 ff ff 00                 =...........

00000588 <__ctors_end>:
     588:	11 24       	eor	r1, r1
     58a:	1f be       	out	0x3f, r1	; 63
     58c:	cf ef       	ldi	r28, 0xFF	; 255
     58e:	d8 e0       	ldi	r29, 0x08	; 8
     590:	de bf       	out	0x3e, r29	; 62
     592:	cd bf       	out	0x3d, r28	; 61

00000594 <__do_copy_data>:
     594:	11 e0       	ldi	r17, 0x01	; 1
     596:	a0 e0       	ldi	r26, 0x00	; 0
     598:	b1 e0       	ldi	r27, 0x01	; 1
     59a:	e6 e8       	ldi	r30, 0x86	; 134
     59c:	fa e1       	ldi	r31, 0x1A	; 26
     59e:	02 c0       	rjmp	.+4      	; 0x5a4 <__do_copy_data+0x10>
     5a0:	05 90       	lpm	r0, Z+
     5a2:	0d 92       	st	X+, r0
     5a4:	aa 31       	cpi	r26, 0x1A	; 26
     5a6:	b1 07       	cpc	r27, r17
     5a8:	d9 f7       	brne	.-10     	; 0x5a0 <__do_copy_data+0xc>

000005aa <__do_clear_bss>:
     5aa:	22 e0       	ldi	r18, 0x02	; 2
     5ac:	aa e1       	ldi	r26, 0x1A	; 26
     5ae:	b1 e0       	ldi	r27, 0x01	; 1
     5b0:	01 c0       	rjmp	.+2      	; 0x5b4 <.do_clear_bss_start>

000005b2 <.do_clear_bss_loop>:
     5b2:	1d 92       	st	X+, r1

000005b4 <.do_clear_bss_start>:
     5b4:	a6 39       	cpi	r26, 0x96	; 150
     5b6:	b2 07       	cpc	r27, r18
     5b8:	e1 f7       	brne	.-8      	; 0x5b2 <.do_clear_bss_loop>
     5ba:	db d0       	rcall	.+438    	; 0x772 <main>
     5bc:	0c 94 41 0d 	jmp	0x1a82	; 0x1a82 <_exit>

000005c0 <__bad_interrupt>:
     5c0:	1f cd       	rjmp	.-1474   	; 0x0 <__vectors>

000005c2 <I2C_init>:
	TWCR = (1<<TWINT) | (1<<TWEN);
	// wait for end of transmission
	while( !(TWCR & (1<<TWINT)) );
	// return received data from TWDR
	return TWDR;
}
     5c2:	88 e4       	ldi	r24, 0x48	; 72
     5c4:	80 93 b8 00 	sts	0x00B8, r24
     5c8:	08 95       	ret

000005ca <I2C_start>:
     5ca:	ec eb       	ldi	r30, 0xBC	; 188
     5cc:	f0 e0       	ldi	r31, 0x00	; 0
     5ce:	10 82       	st	Z, r1
     5d0:	94 ea       	ldi	r25, 0xA4	; 164
     5d2:	90 83       	st	Z, r25
     5d4:	90 81       	ld	r25, Z
     5d6:	99 23       	and	r25, r25
     5d8:	ec f7       	brge	.-6      	; 0x5d4 <I2C_start+0xa>
     5da:	90 91 b9 00 	lds	r25, 0x00B9
     5de:	98 7f       	andi	r25, 0xF8	; 248
     5e0:	98 30       	cpi	r25, 0x08	; 8
     5e2:	a1 f4       	brne	.+40     	; 0x60c <I2C_start+0x42>
     5e4:	80 93 bb 00 	sts	0x00BB, r24
     5e8:	84 e8       	ldi	r24, 0x84	; 132
     5ea:	80 93 bc 00 	sts	0x00BC, r24
     5ee:	ec eb       	ldi	r30, 0xBC	; 188
     5f0:	f0 e0       	ldi	r31, 0x00	; 0
     5f2:	80 81       	ld	r24, Z
     5f4:	88 23       	and	r24, r24
     5f6:	ec f7       	brge	.-6      	; 0x5f2 <I2C_start+0x28>
     5f8:	90 91 b9 00 	lds	r25, 0x00B9
     5fc:	98 7f       	andi	r25, 0xF8	; 248
     5fe:	98 31       	cpi	r25, 0x18	; 24
     600:	39 f0       	breq	.+14     	; 0x610 <I2C_start+0x46>
     602:	81 e0       	ldi	r24, 0x01	; 1
     604:	90 34       	cpi	r25, 0x40	; 64
     606:	29 f4       	brne	.+10     	; 0x612 <I2C_start+0x48>
     608:	80 e0       	ldi	r24, 0x00	; 0
     60a:	08 95       	ret
     60c:	81 e0       	ldi	r24, 0x01	; 1
     60e:	08 95       	ret
     610:	80 e0       	ldi	r24, 0x00	; 0
     612:	08 95       	ret

00000614 <I2C_write>:
     614:	80 93 bb 00 	sts	0x00BB, r24
     618:	84 e8       	ldi	r24, 0x84	; 132
     61a:	80 93 bc 00 	sts	0x00BC, r24
     61e:	ec eb       	ldi	r30, 0xBC	; 188
     620:	f0 e0       	ldi	r31, 0x00	; 0
     622:	80 81       	ld	r24, Z
     624:	88 23       	and	r24, r24
     626:	ec f7       	brge	.-6      	; 0x622 <I2C_write+0xe>
     628:	90 91 b9 00 	lds	r25, 0x00B9
     62c:	98 7f       	andi	r25, 0xF8	; 248
     62e:	81 e0       	ldi	r24, 0x01	; 1
     630:	98 32       	cpi	r25, 0x28	; 40
     632:	09 f4       	brne	.+2      	; 0x636 <I2C_write+0x22>
     634:	80 e0       	ldi	r24, 0x00	; 0
     636:	08 95       	ret

00000638 <I2C_read_ack>:
     638:	84 ec       	ldi	r24, 0xC4	; 196
     63a:	80 93 bc 00 	sts	0x00BC, r24
     63e:	ec eb       	ldi	r30, 0xBC	; 188
     640:	f0 e0       	ldi	r31, 0x00	; 0
     642:	80 81       	ld	r24, Z
     644:	88 23       	and	r24, r24
     646:	ec f7       	brge	.-6      	; 0x642 <I2C_read_ack+0xa>
     648:	80 91 bb 00 	lds	r24, 0x00BB
     64c:	08 95       	ret

0000064e <I2C_stop>:

void I2C_stop(void){
	// transmit STOP condition
	TWCR = (1<<TWINT) | (1<<TWEN) | (1<<TWSTO);
     64e:	84 e9       	ldi	r24, 0x94	; 148
     650:	80 93 bc 00 	sts	0x00BC, r24
     654:	08 95       	ret

00000656 <millis_init>:
{
	ATOMIC_BLOCK(ATOMIC_RESTORESTATE)
	{
		milliseconds -= ms;
	}
}
     656:	82 e0       	ldi	r24, 0x02	; 2
     658:	84 bd       	out	0x24, r24	; 36
     65a:	93 e0       	ldi	r25, 0x03	; 3
     65c:	95 bd       	out	0x25, r25	; 37
     65e:	80 93 6e 00 	sts	0x006E, r24
     662:	8a ef       	ldi	r24, 0xFA	; 250
     664:	87 bd       	out	0x27, r24	; 39
     666:	08 95       	ret

00000668 <millis_get>:
     668:	0f 93       	push	r16
     66a:	1f 93       	push	r17
     66c:	8f b7       	in	r24, 0x3f	; 63
     66e:	f8 94       	cli
     670:	00 91 1a 01 	lds	r16, 0x011A
     674:	10 91 1b 01 	lds	r17, 0x011B
     678:	20 91 1c 01 	lds	r18, 0x011C
     67c:	30 91 1d 01 	lds	r19, 0x011D
     680:	8f bf       	out	0x3f, r24	; 63
     682:	60 2f       	mov	r22, r16
     684:	71 2f       	mov	r23, r17
     686:	82 2f       	mov	r24, r18
     688:	93 2f       	mov	r25, r19
     68a:	1f 91       	pop	r17
     68c:	0f 91       	pop	r16
     68e:	08 95       	ret

00000690 <millis_resume>:
     690:	e4 e6       	ldi	r30, 0x64	; 100
     692:	f0 e0       	ldi	r31, 0x00	; 0
     694:	80 81       	ld	r24, Z
     696:	8f 7d       	andi	r24, 0xDF	; 223
     698:	80 83       	st	Z, r24
     69a:	ee e6       	ldi	r30, 0x6E	; 110
     69c:	f0 e0       	ldi	r31, 0x00	; 0
     69e:	80 81       	ld	r24, Z
     6a0:	82 60       	ori	r24, 0x02	; 2
     6a2:	80 83       	st	Z, r24
     6a4:	08 95       	ret

000006a6 <millis_pause>:
     6a6:	ee e6       	ldi	r30, 0x6E	; 110
     6a8:	f0 e0       	ldi	r31, 0x00	; 0
     6aa:	80 81       	ld	r24, Z
     6ac:	8d 7f       	andi	r24, 0xFD	; 253
     6ae:	80 83       	st	Z, r24
     6b0:	e4 e6       	ldi	r30, 0x64	; 100
     6b2:	f0 e0       	ldi	r31, 0x00	; 0
     6b4:	80 81       	ld	r24, Z
     6b6:	80 62       	ori	r24, 0x20	; 32
     6b8:	80 83       	st	Z, r24
     6ba:	08 95       	ret

000006bc <millis_reset>:
     6bc:	8f b7       	in	r24, 0x3f	; 63
     6be:	f8 94       	cli
     6c0:	10 92 1a 01 	sts	0x011A, r1
     6c4:	10 92 1b 01 	sts	0x011B, r1
     6c8:	10 92 1c 01 	sts	0x011C, r1
     6cc:	10 92 1d 01 	sts	0x011D, r1
     6d0:	8f bf       	out	0x3f, r24	; 63
     6d2:	08 95       	ret

000006d4 <__vector_14>:

ISR(ISR_VECT)
{
     6d4:	1f 92       	push	r1
     6d6:	0f 92       	push	r0
     6d8:	0f b6       	in	r0, 0x3f	; 63
     6da:	0f 92       	push	r0
     6dc:	11 24       	eor	r1, r1
     6de:	8f 93       	push	r24
     6e0:	9f 93       	push	r25
     6e2:	af 93       	push	r26
     6e4:	bf 93       	push	r27
	++milliseconds;
     6e6:	80 91 1a 01 	lds	r24, 0x011A
     6ea:	90 91 1b 01 	lds	r25, 0x011B
     6ee:	a0 91 1c 01 	lds	r26, 0x011C
     6f2:	b0 91 1d 01 	lds	r27, 0x011D
     6f6:	01 96       	adiw	r24, 0x01	; 1
     6f8:	a1 1d       	adc	r26, r1
     6fa:	b1 1d       	adc	r27, r1
     6fc:	80 93 1a 01 	sts	0x011A, r24
     700:	90 93 1b 01 	sts	0x011B, r25
     704:	a0 93 1c 01 	sts	0x011C, r26
     708:	b0 93 1d 01 	sts	0x011D, r27
}
     70c:	bf 91       	pop	r27
     70e:	af 91       	pop	r26
     710:	9f 91       	pop	r25
     712:	8f 91       	pop	r24
     714:	0f 90       	pop	r0
     716:	0f be       	out	0x3f, r0	; 63
     718:	0f 90       	pop	r0
     71a:	1f 90       	pop	r1
     71c:	18 95       	reti

0000071e <_Z11timer2_initv>:

// Initialise library
void timer2_init()
{
	// Timer settings
	TCCR2A = _BV(WGM21); // prescaler 128
     71e:	82 e0       	ldi	r24, 0x02	; 2
     720:	80 93 b0 00 	sts	0x00B0, r24
	TCCR2B = _BV(CS22)|_BV(CS20);
     724:	85 e0       	ldi	r24, 0x05	; 5
     726:	80 93 b1 00 	sts	0x00B1, r24
	
	OCR2A = ((F_CPU / 128) / 1000);
     72a:	8d e7       	ldi	r24, 0x7D	; 125
     72c:	80 93 b3 00 	sts	0x00B3, r24
		
	TIMSK2 &= ~_BV(OCIE2A);
     730:	e0 e7       	ldi	r30, 0x70	; 112
     732:	f0 e0       	ldi	r31, 0x00	; 0
     734:	80 81       	ld	r24, Z
     736:	8d 7f       	andi	r24, 0xFD	; 253
     738:	80 83       	st	Z, r24
	power_timer2_disable(); // powerdown timer2!
     73a:	e4 e6       	ldi	r30, 0x64	; 100
     73c:	f0 e0       	ldi	r31, 0x00	; 0
     73e:	80 81       	ld	r24, Z
     740:	80 64       	ori	r24, 0x40	; 64
     742:	80 83       	st	Z, r24
     744:	08 95       	ret

00000746 <_Z13timer2_resumev>:


// Turn on timer and resume interrupts
void timer2_resume()
{
	power_timer2_enable();
     746:	e4 e6       	ldi	r30, 0x64	; 100
     748:	f0 e0       	ldi	r31, 0x00	; 0
     74a:	80 81       	ld	r24, Z
     74c:	8f 7b       	andi	r24, 0xBF	; 191
     74e:	80 83       	st	Z, r24
	TIMSK2 |= _BV(OCIE2A);
     750:	e0 e7       	ldi	r30, 0x70	; 112
     752:	f0 e0       	ldi	r31, 0x00	; 0
     754:	80 81       	ld	r24, Z
     756:	82 60       	ori	r24, 0x02	; 2
     758:	80 83       	st	Z, r24
     75a:	08 95       	ret

0000075c <_Z12timer2_pausev>:
}

// Pause interrupts and turn off timer to save power
void timer2_pause()
{
	TIMSK2 &= ~_BV(OCIE2A);
     75c:	e0 e7       	ldi	r30, 0x70	; 112
     75e:	f0 e0       	ldi	r31, 0x00	; 0
     760:	80 81       	ld	r24, Z
     762:	8d 7f       	andi	r24, 0xFD	; 253
     764:	80 83       	st	Z, r24
	power_timer2_disable();
     766:	e4 e6       	ldi	r30, 0x64	; 100
     768:	f0 e0       	ldi	r31, 0x00	; 0
     76a:	80 81       	ld	r24, Z
     76c:	80 64       	ori	r24, 0x40	; 64
     76e:	80 83       	st	Z, r24
     770:	08 95       	ret

00000772 <main>:
	#include "tone.h"
};

		 
	
int main() {	
     772:	cf 93       	push	r28
     774:	df 93       	push	r29
     776:	00 d0       	rcall	.+0      	; 0x778 <main+0x6>
     778:	cd b7       	in	r28, 0x3d	; 61
     77a:	de b7       	in	r29, 0x3e	; 62
// disable ADC for less power 
	ADCSRA &= ~_BV(ADEN); // ADC off 
     77c:	ea e7       	ldi	r30, 0x7A	; 122
     77e:	f0 e0       	ldi	r31, 0x00	; 0
     780:	80 81       	ld	r24, Z
     782:	8f 77       	andi	r24, 0x7F	; 127
     784:	80 83       	st	Z, r24
	sei();
     786:	78 94       	sei
	
	DDRB |= _BV(0); // pb0 output
     788:	20 9a       	sbi	0x04, 0	; 4
	DDRB |= _BV(1); // pb0 output
     78a:	21 9a       	sbi	0x04, 1	; 4
	PORTB |= _BV(0); // pb0 aan
     78c:	28 9a       	sbi	0x05, 0	; 5
	PORTB |= _BV(1); // pb0 aan
     78e:	29 9a       	sbi	0x05, 1	; 5
	#else
		//round up by default
		__ticks_dc = (uint32_t)(ceil(fabs(__tmp)));
	#endif

	__builtin_avr_delay_cycles(__ticks_dc);
     790:	2f ef       	ldi	r18, 0xFF	; 255
     792:	89 e6       	ldi	r24, 0x69	; 105
     794:	98 e1       	ldi	r25, 0x18	; 24
     796:	21 50       	subi	r18, 0x01	; 1
     798:	80 40       	sbci	r24, 0x00	; 0
     79a:	90 40       	sbci	r25, 0x00	; 0
     79c:	e1 f7       	brne	.-8      	; 0x796 <main+0x24>
     79e:	00 c0       	rjmp	.+0      	; 0x7a0 <main+0x2e>
     7a0:	00 00       	nop
	_delay_ms(500);
	PORTB &= ~_BV(0); // pb0 uit
     7a2:	28 98       	cbi	0x05, 0	; 5
	PORTB &= ~_BV(1); // pb0 uit
     7a4:	29 98       	cbi	0x05, 1	; 5
	
			/* Initialize MILLIS */
	        millis_init();
     7a6:	57 df       	rcall	.-338    	; 0x656 <millis_init>
     7a8:	ef ef       	ldi	r30, 0xFF	; 255
     7aa:	f3 ed       	ldi	r31, 0xD3	; 211
     7ac:	20 e3       	ldi	r18, 0x30	; 48
     7ae:	e1 50       	subi	r30, 0x01	; 1
     7b0:	f0 40       	sbci	r31, 0x00	; 0
     7b2:	20 40       	sbci	r18, 0x00	; 0
     7b4:	e1 f7       	brne	.-8      	; 0x7ae <main+0x3c>
     7b6:	00 c0       	rjmp	.+0      	; 0x7b8 <main+0x46>
     7b8:	00 00       	nop
			_delay_ms(1000);
			/* Initialize MILLIS */

			/* Initialize TONE */						
			tone_init();		
     7ba:	0e 94 1f 0c 	call	0x183e	; 0x183e <tone_init>
			/* Initialize TONE */						
						
						
			/* Initialize TIMER 2 */
			timer2_init();
     7be:	af df       	rcall	.-162    	; 0x71e <_Z11timer2_initv>
			/* Initialize UART */
			#ifdef DEBUG_SERIAL
			uart_init( ((F_CPU)/((UART_BAUD_RATE)*16l)-1)) ;
			_delay_ms(1000);
			#else
			power_usart0_disable();
     7c0:	e4 e6       	ldi	r30, 0x64	; 100
     7c2:	f0 e0       	ldi	r31, 0x00	; 0
     7c4:	80 81       	ld	r24, Z
     7c6:	82 60       	ori	r24, 0x02	; 2
     7c8:	80 83       	st	Z, r24
			#endif
			/* Initialize UART */
		
			/* Initialize I2C */
			I2C_init();	
     7ca:	fb de       	rcall	.-522    	; 0x5c2 <I2C_init>
			/* Initialize I2C */
			
			/* Initialize PCA9634 */
			pca9635_init();
     7cc:	c8 d3       	rcall	.+1936   	; 0xf5e <pca9635_init>
     7ce:	13 e0       	ldi	r17, 0x03	; 3
			
			// blink 3 times fast
			for (byte i = 0; i <= 2; ++i){
			pca9635_set_all_led_pwm(255);
     7d0:	8f ef       	ldi	r24, 0xFF	; 255
     7d2:	0b d4       	rcall	.+2070   	; 0xfea <pca9635_set_all_led_pwm>
     7d4:	8f ef       	ldi	r24, 0xFF	; 255
     7d6:	91 ee       	ldi	r25, 0xE1	; 225
     7d8:	e4 e0       	ldi	r30, 0x04	; 4
     7da:	81 50       	subi	r24, 0x01	; 1
     7dc:	90 40       	sbci	r25, 0x00	; 0
     7de:	e0 40       	sbci	r30, 0x00	; 0
     7e0:	e1 f7       	brne	.-8      	; 0x7da <main+0x68>
     7e2:	00 c0       	rjmp	.+0      	; 0x7e4 <main+0x72>
     7e4:	00 00       	nop
			_delay_ms(100);
			pca9635_set_all_led_pwm(0);
     7e6:	80 e0       	ldi	r24, 0x00	; 0
     7e8:	00 d4       	rcall	.+2048   	; 0xfea <pca9635_set_all_led_pwm>
     7ea:	ff ef       	ldi	r31, 0xFF	; 255
     7ec:	21 ee       	ldi	r18, 0xE1	; 225
     7ee:	84 e0       	ldi	r24, 0x04	; 4
     7f0:	f1 50       	subi	r31, 0x01	; 1
     7f2:	20 40       	sbci	r18, 0x00	; 0
     7f4:	80 40       	sbci	r24, 0x00	; 0
     7f6:	e1 f7       	brne	.-8      	; 0x7f0 <main+0x7e>
     7f8:	00 c0       	rjmp	.+0      	; 0x7fa <main+0x88>
     7fa:	00 00       	nop
     7fc:	11 50       	subi	r17, 0x01	; 1
			
			/* Initialize PCA9634 */
			pca9635_init();
			
			// blink 3 times fast
			for (byte i = 0; i <= 2; ++i){
     7fe:	41 f7       	brne	.-48     	; 0x7d0 <main+0x5e>
			_delay_ms(100);
			pca9635_set_all_led_pwm(0);
			_delay_ms(100);
			}
			
			pca9635_set_sleep(1);
     800:	81 e0       	ldi	r24, 0x01	; 1
     802:	03 d4       	rcall	.+2054   	; 0x100a <pca9635_set_sleep>
			/* Initialize PCA9634 */
			
		
			// node id, rfband, group id
			rf12_initialize(2, RF12_868MHZ, 14);
     804:	4e e0       	ldi	r20, 0x0E	; 14
     806:	62 e0       	ldi	r22, 0x02	; 2
     808:	82 e0       	ldi	r24, 0x02	; 2
     80a:	2f d6       	rcall	.+3166   	; 0x146a <_Z15rf12_initializehhh>
			// see http://tools.jeelabs.org/rfm12b
		


			deep_sleep_ok = 1; // put device in deep sleep after initializing
     80c:	81 e0       	ldi	r24, 0x01	; 1
     80e:	80 93 34 01 	sts	0x0134, r24
			_delay_ms(1000);
			#endif
			
			// initialised
			
				pca9635_set_led_pwm(1, 255);
     812:	6f ef       	ldi	r22, 0xFF	; 255
     814:	d9 d3       	rcall	.+1970   	; 0xfc8 <pca9635_set_led_pwm>
     816:	9f ef       	ldi	r25, 0xFF	; 255
     818:	e7 e8       	ldi	r30, 0x87	; 135
     81a:	f3 e1       	ldi	r31, 0x13	; 19
     81c:	91 50       	subi	r25, 0x01	; 1
     81e:	e0 40       	sbci	r30, 0x00	; 0
     820:	f0 40       	sbci	r31, 0x00	; 0
     822:	e1 f7       	brne	.-8      	; 0x81c <main+0xaa>
     824:	00 c0       	rjmp	.+0      	; 0x826 <main+0xb4>
     826:	00 00       	nop
				_delay_ms(400);
				pca9635_set_led_pwm(8, 255);
     828:	6f ef       	ldi	r22, 0xFF	; 255
     82a:	88 e0       	ldi	r24, 0x08	; 8
     82c:	cd d3       	rcall	.+1946   	; 0xfc8 <pca9635_set_led_pwm>
     82e:	2f ef       	ldi	r18, 0xFF	; 255
     830:	87 e8       	ldi	r24, 0x87	; 135
     832:	93 e1       	ldi	r25, 0x13	; 19
     834:	21 50       	subi	r18, 0x01	; 1
     836:	80 40       	sbci	r24, 0x00	; 0
     838:	90 40       	sbci	r25, 0x00	; 0
     83a:	e1 f7       	brne	.-8      	; 0x834 <main+0xc2>
     83c:	00 c0       	rjmp	.+0      	; 0x83e <main+0xcc>
     83e:	00 00       	nop
				_delay_ms(400);
				pca9635_set_led_pwm(11, 255);
     840:	6f ef       	ldi	r22, 0xFF	; 255
     842:	8b e0       	ldi	r24, 0x0B	; 11
     844:	c1 d3       	rcall	.+1922   	; 0xfc8 <pca9635_set_led_pwm>
     846:	ef ef       	ldi	r30, 0xFF	; 255
     848:	f7 e8       	ldi	r31, 0x87	; 135
     84a:	23 e1       	ldi	r18, 0x13	; 19
     84c:	e1 50       	subi	r30, 0x01	; 1
     84e:	f0 40       	sbci	r31, 0x00	; 0
     850:	20 40       	sbci	r18, 0x00	; 0
     852:	e1 f7       	brne	.-8      	; 0x84c <main+0xda>
     854:	00 c0       	rjmp	.+0      	; 0x856 <main+0xe4>
     856:	00 00       	nop
				_delay_ms(400);
				pca9635_set_led_pwm(14, 255);
     858:	6f ef       	ldi	r22, 0xFF	; 255
     85a:	8e e0       	ldi	r24, 0x0E	; 14
     85c:	b5 d3       	rcall	.+1898   	; 0xfc8 <pca9635_set_led_pwm>
     85e:	8f ef       	ldi	r24, 0xFF	; 255
     860:	9f e0       	ldi	r25, 0x0F	; 15
     862:	e7 e2       	ldi	r30, 0x27	; 39
     864:	81 50       	subi	r24, 0x01	; 1
     866:	90 40       	sbci	r25, 0x00	; 0
     868:	e0 40       	sbci	r30, 0x00	; 0
     86a:	e1 f7       	brne	.-8      	; 0x864 <main+0xf2>
     86c:	00 c0       	rjmp	.+0      	; 0x86e <main+0xfc>
     86e:	00 00       	nop
				_delay_ms(800);
				pca9635_set_all_led_pwm(0);
     870:	80 e0       	ldi	r24, 0x00	; 0
     872:	bb d3       	rcall	.+1910   	; 0xfea <pca9635_set_all_led_pwm>
				//	uart0_puts("DATA");
				//	_delay_ms(10);
				//	#endif
					
								
			if (RF12_WANTS_ACK) {
     874:	0f 2e       	mov	r0, r31
     876:	fc e3       	ldi	r31, 0x3C	; 60
     878:	ef 2e       	mov	r14, r31
     87a:	f1 e0       	ldi	r31, 0x01	; 1
     87c:	ff 2e       	mov	r15, r31
     87e:	f0 2d       	mov	r31, r0
							_delay_ms(50);
							#endif
				*/
				////////////////		Fill alarm array		 ////////////////
				// only get the first byte
				uint8_t data = rf12_data[1]; // not used, not used, not used, start (1) or stop(0), doorbell, phone, fire, help;
     880:	0f 2e       	mov	r0, r31
     882:	ff e3       	ldi	r31, 0x3F	; 63
     884:	8f 2e       	mov	r8, r31
     886:	f1 e0       	ldi	r31, 0x01	; 1
     888:	9f 2e       	mov	r9, r31
     88a:	f0 2d       	mov	r31, r0
							I2C_init();	
							pca9635_set_sleep(0);
								
						 }else{
							 
								if(!(data & 0x10)){	 // already a active alarm and received a packet to stop alarm?	
     88c:	41 2c       	mov	r4, r1
     88e:	51 2c       	mov	r5, r1
									// put leds off!
									for (byte i = 0; i <= 3; ++i){
										if(data & (alarm_bitmask[i]) ){ // check which alarm needs to be stopped
     890:	49 82       	std	Y+1, r4	; 0x01
     892:	5a 82       	std	Y+2, r5	; 0x02
							PRR = 0x03; // enable all devices except usart0 and adc
							 
							deep_sleep_ok = 0; // prevent while loop from going in deepsleep
							
							 // 1. fill icon_current_alarm and sound_current_alarm with the first alarm
							 for (byte i = 0; i <= 3; ++i){
     894:	22 24       	eor	r2, r2
     896:	23 94       	inc	r2
				pca9635_set_all_led_pwm(0);
				
	while(1){ // Stop (so it doesn't repeat forever driving you crazy--you're welcome).

	
	if (rf12_recvDone() && rf12_crc == 0) {
     898:	0f d4       	rcall	.+2078   	; 0x10b8 <_Z13rf12_recvDonev>
     89a:	88 23       	and	r24, r24
     89c:	e9 f3       	breq	.-6      	; 0x898 <main+0x126>
     89e:	80 91 82 01 	lds	r24, 0x0182
     8a2:	90 91 83 01 	lds	r25, 0x0183
     8a6:	89 2b       	or	r24, r25
     8a8:	09 f4       	brne	.+2      	; 0x8ac <main+0x13a>
     8aa:	ca c0       	rjmp	.+404    	; 0xa40 <__stack+0x141>
     8ac:	f5 cf       	rjmp	.-22     	; 0x898 <main+0x126>
				//	uart0_puts("DATA");
				//	_delay_ms(10);
				//	#endif
					
								
			if (RF12_WANTS_ACK) {
     8ae:	f7 01       	movw	r30, r14
     8b0:	80 81       	ld	r24, Z
     8b2:	85 ff       	sbrs	r24, 5
     8b4:	0e c0       	rjmp	.+28     	; 0x8d2 <main+0x160>
     8b6:	80 81       	ld	r24, Z
     8b8:	88 23       	and	r24, r24
     8ba:	0c f0       	brlt	.+2      	; 0x8be <main+0x14c>
     8bc:	c7 c0       	rjmp	.+398    	; 0xa4c <__stack+0x14d>
     8be:	09 c0       	rjmp	.+18     	; 0x8d2 <main+0x160>
				rf12_sendStart(RF12_ACK_REPLY,0,0);
     8c0:	f7 01       	movw	r30, r14
     8c2:	80 81       	ld	r24, Z
     8c4:	8f 71       	andi	r24, 0x1F	; 31
     8c6:	80 6c       	ori	r24, 0xC0	; 192
     8c8:	40 e0       	ldi	r20, 0x00	; 0
     8ca:	b2 01       	movw	r22, r4
     8cc:	4b d5       	rcall	.+2710   	; 0x1364 <_Z14rf12_sendStarthPKvh>
				rf12_sendWait(1); // don't power down too soon
     8ce:	82 2d       	mov	r24, r2
     8d0:	57 d5       	rcall	.+2734   	; 0x1380 <_Z13rf12_sendWaith>
							_delay_ms(50);
							#endif
				*/
				////////////////		Fill alarm array		 ////////////////
				// only get the first byte
				uint8_t data = rf12_data[1]; // not used, not used, not used, start (1) or stop(0), doorbell, phone, fire, help;
     8d2:	f4 01       	movw	r30, r8
     8d4:	30 80       	ld	r3, Z
				#ifdef DEBUG_SERIAL
				uart0_putc(data);
				_delay_ms(10);
				#endif    
						
				 if(data & 0x10){
     8d6:	13 2d       	mov	r17, r3
     8d8:	10 71       	andi	r17, 0x10	; 16
     8da:	34 fe       	sbrs	r3, 4
     8dc:	06 c0       	rjmp	.+12     	; 0x8ea <main+0x178>
					 #ifdef DEBUG_SERIAL
					 // start alarm	 
					 uart0_puts("START");
					 #endif
					
					 active_alarm = active_alarm | data; // 00001111 
     8de:	80 91 33 01 	lds	r24, 0x0133
     8e2:	83 29       	or	r24, r3
     8e4:	80 93 33 01 	sts	0x0133, r24
     8e8:	07 c0       	rjmp	.+14     	; 0x8f8 <main+0x186>
					 #ifdef DEBUG_SERIAL
					 // start alarm
					 uart0_puts("STOP");
					 #endif
					 
					 active_alarm =  active_alarm & (~data); /* invert data, compare with active alarm array to clear the right alarm bit */		 
     8ea:	83 2d       	mov	r24, r3
     8ec:	80 95       	com	r24
     8ee:	90 91 33 01 	lds	r25, 0x0133
     8f2:	89 23       	and	r24, r25
     8f4:	80 93 33 01 	sts	0x0133, r24
				 }
				 
				////////////////		Fill alarm array		 ////////////////				 
				
			 // IS ER EEN ALARM ACTIEF in array active_alarm?
				 if(active_alarm & 0x0F){
     8f8:	80 91 33 01 	lds	r24, 0x0133
     8fc:	8f 70       	andi	r24, 0x0F	; 15
     8fe:	09 f4       	brne	.+2      	; 0x902 <__stack+0x3>
     900:	77 c0       	rjmp	.+238    	; 0x9f0 <__stack+0xf1>
			  	
						 // Is there a active alarm thats already activated?
						 if(active_alarm_time == 0) {
     902:	80 91 2f 01 	lds	r24, 0x012F
     906:	90 91 30 01 	lds	r25, 0x0130
     90a:	a0 91 31 01 	lds	r26, 0x0131
     90e:	b0 91 32 01 	lds	r27, 0x0132
     912:	89 2b       	or	r24, r25
     914:	8a 2b       	or	r24, r26
     916:	8b 2b       	or	r24, r27
     918:	29 f5       	brne	.+74     	; 0x964 <__stack+0x65>
							// Geen alarm actief

							PRR = 0x03; // enable all devices except usart0 and adc
     91a:	23 e0       	ldi	r18, 0x03	; 3
     91c:	e4 e6       	ldi	r30, 0x64	; 100
     91e:	f0 e0       	ldi	r31, 0x00	; 0
     920:	20 83       	st	Z, r18
							 
							deep_sleep_ok = 0; // prevent while loop from going in deepsleep
     922:	10 92 34 01 	sts	0x0134, r1
							
							 // 1. fill icon_current_alarm and sound_current_alarm with the first alarm
							 for (byte i = 0; i <= 3; ++i){
								if(active_alarm & (alarm_bitmask[i]) ){ // check if next alarm is active
     926:	80 91 33 01 	lds	r24, 0x0133
     92a:	83 fd       	sbrc	r24, 3
     92c:	0c c0       	rjmp	.+24     	; 0x946 <__stack+0x47>
     92e:	82 fd       	sbrc	r24, 2
     930:	06 c0       	rjmp	.+12     	; 0x93e <__stack+0x3f>
     932:	81 fd       	sbrc	r24, 1
     934:	06 c0       	rjmp	.+12     	; 0x942 <__stack+0x43>
     936:	80 ff       	sbrs	r24, 0
     938:	0b c0       	rjmp	.+22     	; 0x950 <__stack+0x51>
     93a:	83 e0       	ldi	r24, 0x03	; 3
     93c:	05 c0       	rjmp	.+10     	; 0x948 <__stack+0x49>
							PRR = 0x03; // enable all devices except usart0 and adc
							 
							deep_sleep_ok = 0; // prevent while loop from going in deepsleep
							
							 // 1. fill icon_current_alarm and sound_current_alarm with the first alarm
							 for (byte i = 0; i <= 3; ++i){
     93e:	82 2d       	mov	r24, r2
     940:	03 c0       	rjmp	.+6      	; 0x948 <__stack+0x49>
     942:	82 e0       	ldi	r24, 0x02	; 2
     944:	01 c0       	rjmp	.+2      	; 0x948 <__stack+0x49>
     946:	80 e0       	ldi	r24, 0x00	; 0
								if(active_alarm & (alarm_bitmask[i]) ){ // check if next alarm is active
									sound_current_alarm = i;
     948:	80 93 2e 01 	sts	0x012E, r24
									icon_current_alarm  = i;
     94c:	80 93 23 01 	sts	0x0123, r24
									break;
								} 
							 }

							// 2. timer 0 - millis starten
							millis_reset();
     950:	b5 de       	rcall	.-662    	; 0x6bc <millis_reset>
							millis_resume();
     952:	9e de       	rcall	.-708    	; 0x690 <millis_resume>
				 
							// 3. timer 2 - alarm timer starten
							timer2_resume();							
     954:	f8 de       	rcall	.-528    	; 0x746 <_Z13timer2_resumev>
										 
							// wake up pca9635!
							I2C_init();	
     956:	35 de       	rcall	.-918    	; 0x5c2 <I2C_init>
							pca9635_set_sleep(0);
     958:	80 e0       	ldi	r24, 0x00	; 0
     95a:	57 d3       	rcall	.+1710   	; 0x100a <pca9635_set_sleep>
						 } //  if(active_alarm_time == 0) {
				 

				 		// Only reset active alarm timer if there is a new alarm...
						// 0x10 = activate bit 0x0F are bits of the alarms
						if( (data & 0x10) && (data & 0x0F)){
     95c:	11 23       	and	r17, r17
     95e:	09 f4       	brne	.+2      	; 0x962 <__stack+0x63>
     960:	9b cf       	rjmp	.-202    	; 0x898 <main+0x126>
     962:	2a c0       	rjmp	.+84     	; 0x9b8 <__stack+0xb9>
							I2C_init();	
							pca9635_set_sleep(0);
								
						 }else{
							 
								if(!(data & 0x10)){	 // already a active alarm and received a packet to stop alarm?	
     964:	11 11       	cpse	r17, r1
     966:	28 c0       	rjmp	.+80     	; 0x9b8 <__stack+0xb9>
     968:	0f 2e       	mov	r0, r31
     96a:	fe e0       	ldi	r31, 0x0E	; 14
     96c:	af 2e       	mov	r10, r31
     96e:	f1 e0       	ldi	r31, 0x01	; 1
     970:	bf 2e       	mov	r11, r31
     972:	f0 2d       	mov	r31, r0
     974:	62 01       	movw	r12, r4
									// put leds off!
									for (byte i = 0; i <= 3; ++i){
										if(data & (alarm_bitmask[i]) ){ // check which alarm needs to be stopped
     976:	f5 01       	movw	r30, r10
     978:	21 91       	ld	r18, Z+
     97a:	5f 01       	movw	r10, r30
     97c:	23 21       	and	r18, r3
     97e:	a1 f0       	breq	.+40     	; 0x9a8 <__stack+0xa9>
     980:	09 81       	ldd	r16, Y+1	; 0x01
     982:	1a 81       	ldd	r17, Y+2	; 0x02
											for (byte j = 0; j <= 2; j++){
												pca9635_set_led_pwm( pgm_read_byte(&(icon_led_numbers[i].lednr[j])), 0); // leds off!
     984:	36 01       	movw	r6, r12
     986:	66 0c       	add	r6, r6
     988:	77 1c       	adc	r7, r7
     98a:	6c 0c       	add	r6, r12
     98c:	7d 1c       	adc	r7, r13
     98e:	f3 01       	movw	r30, r6
     990:	e0 0f       	add	r30, r16
     992:	f1 1f       	adc	r31, r17
     994:	e8 59       	subi	r30, 0x98	; 152
     996:	ff 4f       	sbci	r31, 0xFF	; 255
     998:	84 91       	lpm	r24, Z
     99a:	60 e0       	ldi	r22, 0x00	; 0
     99c:	15 d3       	rcall	.+1578   	; 0xfc8 <pca9635_set_led_pwm>
     99e:	0f 5f       	subi	r16, 0xFF	; 255
     9a0:	1f 4f       	sbci	r17, 0xFF	; 255
							 
								if(!(data & 0x10)){	 // already a active alarm and received a packet to stop alarm?	
									// put leds off!
									for (byte i = 0; i <= 3; ++i){
										if(data & (alarm_bitmask[i]) ){ // check which alarm needs to be stopped
											for (byte j = 0; j <= 2; j++){
     9a2:	03 30       	cpi	r16, 0x03	; 3
     9a4:	11 05       	cpc	r17, r1
     9a6:	99 f7       	brne	.-26     	; 0x98e <__stack+0x8f>
     9a8:	ff ef       	ldi	r31, 0xFF	; 255
     9aa:	cf 1a       	sub	r12, r31
     9ac:	df 0a       	sbc	r13, r31
								
						 }else{
							 
								if(!(data & 0x10)){	 // already a active alarm and received a packet to stop alarm?	
									// put leds off!
									for (byte i = 0; i <= 3; ++i){
     9ae:	24 e0       	ldi	r18, 0x04	; 4
     9b0:	c2 16       	cp	r12, r18
     9b2:	d1 04       	cpc	r13, r1
     9b4:	01 f7       	brne	.-64     	; 0x976 <__stack+0x77>
     9b6:	70 cf       	rjmp	.-288    	; 0x898 <main+0x126>
						 } //  if(active_alarm_time == 0) {
				 

				 		// Only reset active alarm timer if there is a new alarm...
						// 0x10 = activate bit 0x0F are bits of the alarms
						if( (data & 0x10) && (data & 0x0F)){
     9b8:	83 2d       	mov	r24, r3
     9ba:	8f 70       	andi	r24, 0x0F	; 15
     9bc:	09 f4       	brne	.+2      	; 0x9c0 <__stack+0xc1>
     9be:	6c cf       	rjmp	.-296    	; 0x898 <main+0x126>
				 			active_alarm_time = millis_get() + alarm_duration; 		 
     9c0:	53 de       	rcall	.-858    	; 0x668 <millis_get>
     9c2:	00 91 00 01 	lds	r16, 0x0100
     9c6:	10 91 01 01 	lds	r17, 0x0101
     9ca:	20 91 02 01 	lds	r18, 0x0102
     9ce:	30 91 03 01 	lds	r19, 0x0103
     9d2:	dc 01       	movw	r26, r24
     9d4:	cb 01       	movw	r24, r22
     9d6:	80 0f       	add	r24, r16
     9d8:	91 1f       	adc	r25, r17
     9da:	a2 1f       	adc	r26, r18
     9dc:	b3 1f       	adc	r27, r19
     9de:	80 93 2f 01 	sts	0x012F, r24
     9e2:	90 93 30 01 	sts	0x0130, r25
     9e6:	a0 93 31 01 	sts	0x0131, r26
     9ea:	b0 93 32 01 	sts	0x0132, r27
     9ee:	54 cf       	rjmp	.-344    	; 0x898 <main+0x126>
						 }

				}else{ //  if(active_alarm & 0x0F){ // IS ER EEN ALARM ACTIEF in active_alarm?
						// no active alarm in array	
						active_alarm_time = 0; // set alarm time to zero, timers will be disabled in next timer 2 interrupt
     9f0:	10 92 2f 01 	sts	0x012F, r1
     9f4:	10 92 30 01 	sts	0x0130, r1
     9f8:	10 92 31 01 	sts	0x0131, r1
     9fc:	10 92 32 01 	sts	0x0132, r1
     a00:	4b cf       	rjmp	.-362    	; 0x898 <main+0x126>
					 
									
	} else {
		
		// switch into idle mode until the next interrupt - Choose our preferred sleep mode:
		if(deep_sleep_ok == 1){
     a02:	80 91 34 01 	lds	r24, 0x0134
     a06:	81 30       	cpi	r24, 0x01	; 1
     a08:	79 f4       	brne	.+30     	; 0xa28 <__stack+0x129>
		////		PRR		= 0x6B;
		//	#endif
		


			set_sleep_mode(SLEEP_MODE_STANDBY); // if active alarm, go in pwr save mode to keep timer 2 running
     a0a:	83 b7       	in	r24, 0x33	; 51
     a0c:	81 7f       	andi	r24, 0xF1	; 241
     a0e:	8c 60       	ori	r24, 0x0C	; 12
     a10:	83 bf       	out	0x33, r24	; 51
			sleep_enable();
     a12:	83 b7       	in	r24, 0x33	; 51
     a14:	81 60       	ori	r24, 0x01	; 1
     a16:	83 bf       	out	0x33, r24	; 51
			    PORTB |= _BV(1); // pb0 aan
     a18:	29 9a       	sbi	0x05, 1	; 5
		// turn off brown-out enable in software
			 sleep_bod_disable();
     a1a:	85 b7       	in	r24, 0x35	; 53
     a1c:	80 66       	ori	r24, 0x60	; 96
     a1e:	85 bf       	out	0x35, r24	; 53
     a20:	8f 7d       	andi	r24, 0xDF	; 223
     a22:	85 bf       	out	0x35, r24	; 53
			 
		// Put the device to sleep:
			sleep_cpu();
     a24:	88 95       	sleep
     a26:	07 c0       	rjmp	.+14     	; 0xa36 <__stack+0x137>
		}else{
			// disable various adc + usart0
			set_sleep_mode(SLEEP_MODE_IDLE);
     a28:	83 b7       	in	r24, 0x33	; 51
     a2a:	81 7f       	andi	r24, 0xF1	; 241
     a2c:	83 bf       	out	0x33, r24	; 51
			sleep_enable();
     a2e:	83 b7       	in	r24, 0x33	; 51
     a30:	81 60       	ori	r24, 0x01	; 1
     a32:	83 bf       	out	0x33, r24	; 51
			
			// Put the device to sleep:
			sleep_cpu();
     a34:	88 95       	sleep
		}
	
	// Clear sleep enable (SE) bit:
	sleep_disable();
     a36:	83 b7       	in	r24, 0x33	; 51
     a38:	8e 7f       	andi	r24, 0xFE	; 254
     a3a:	83 bf       	out	0x33, r24	; 51
	PORTB &= ~_BV(1); // pb0 uit
     a3c:	29 98       	cbi	0x05, 1	; 5
     a3e:	2c cf       	rjmp	.-424    	; 0x898 <main+0x126>
				
	while(1){ // Stop (so it doesn't repeat forever driving you crazy--you're welcome).

	
	if (rf12_recvDone() && rf12_crc == 0) {
		if(rf12_data[0] == 0x99) { // 153
     a40:	ee e3       	ldi	r30, 0x3E	; 62
     a42:	f1 e0       	ldi	r31, 0x01	; 1
     a44:	80 81       	ld	r24, Z
     a46:	89 39       	cpi	r24, 0x99	; 153
     a48:	e1 f6       	brne	.-72     	; 0xa02 <__stack+0x103>
     a4a:	31 cf       	rjmp	.-414    	; 0x8ae <main+0x13c>
				//	_delay_ms(10);
				//	#endif
					
								
			if (RF12_WANTS_ACK) {
				rf12_sendStart(RF12_ACK_REPLY,0,0);
     a4c:	f7 01       	movw	r30, r14
     a4e:	80 81       	ld	r24, Z
     a50:	86 ff       	sbrs	r24, 6
     a52:	36 cf       	rjmp	.-404    	; 0x8c0 <main+0x14e>
     a54:	80 e8       	ldi	r24, 0x80	; 128
     a56:	38 cf       	rjmp	.-400    	; 0x8c8 <main+0x156>

00000a58 <_Z9isr_soundv>:
	}
						
}


	void isr_sound(){
     a58:	0f 93       	push	r16
     a5a:	1f 93       	push	r17
		//	uart0_putc(sound_current_step);
		//	uart0_putc(millis_get());
		//	uart0_putc(_sound_note_time);
		
			// Stop note if necessary 
			if(_sound_note_time != 0){ // sound already playing?		
     a5c:	80 91 29 01 	lds	r24, 0x0129
     a60:	90 91 2a 01 	lds	r25, 0x012A
     a64:	a0 91 2b 01 	lds	r26, 0x012B
     a68:	b0 91 2c 01 	lds	r27, 0x012C
     a6c:	89 2b       	or	r24, r25
     a6e:	8a 2b       	or	r24, r26
     a70:	8b 2b       	or	r24, r27
     a72:	81 f0       	breq	.+32     	; 0xa94 <_Z9isr_soundv+0x3c>
				//	uart0_puts("GS");
				if(millis_get() < _sound_note_time ){ // Do we need to stop the current note?
     a74:	f9 dd       	rcall	.-1038   	; 0x668 <millis_get>
     a76:	00 91 29 01 	lds	r16, 0x0129
     a7a:	10 91 2a 01 	lds	r17, 0x012A
     a7e:	20 91 2b 01 	lds	r18, 0x012B
     a82:	30 91 2c 01 	lds	r19, 0x012C
     a86:	60 17       	cp	r22, r16
     a88:	71 07       	cpc	r23, r17
     a8a:	82 07       	cpc	r24, r18
     a8c:	93 07       	cpc	r25, r19
     a8e:	08 f4       	brcc	.+2      	; 0xa92 <_Z9isr_soundv+0x3a>
     a90:	ef c0       	rjmp	.+478    	; 0xc70 <_Z9isr_soundv+0x218>
					//uart0_puts("DS");
					return; // dont stop current note
					
				}else{
					noTone(); // stop current note
     a92:	d7 d6       	rcall	.+3502   	; 0x1842 <noTone>
			
			// play next tone
		//	uart0_puts("PN");
		//	tone(unsigned long frequency, uint8_t volume);
		//uart0_putc(sound_current_alarm);
			if(sound_current_alarm == 0 ){
     a94:	80 91 2e 01 	lds	r24, 0x012E
     a98:	81 11       	cpse	r24, r1
     a9a:	2e c0       	rjmp	.+92     	; 0xaf8 <_Z9isr_soundv+0xa0>
				tone(pgm_read_word(&(sound_pattern_doorbell[sound_current_step].frequency)), 10); // freq, volume
     a9c:	e0 91 2d 01 	lds	r30, 0x012D
     aa0:	f0 e0       	ldi	r31, 0x00	; 0
     aa2:	ee 0f       	add	r30, r30
     aa4:	ff 1f       	adc	r31, r31
     aa6:	ee 0f       	add	r30, r30
     aa8:	ff 1f       	adc	r31, r31
     aaa:	ee 0f       	add	r30, r30
     aac:	ff 1f       	adc	r31, r31
     aae:	ec 58       	subi	r30, 0x8C	; 140
     ab0:	ff 4f       	sbci	r31, 0xFF	; 255
     ab2:	65 91       	lpm	r22, Z+
     ab4:	74 91       	lpm	r23, Z
     ab6:	80 e0       	ldi	r24, 0x00	; 0
     ab8:	90 e0       	ldi	r25, 0x00	; 0
     aba:	4a e0       	ldi	r20, 0x0A	; 10
     abc:	ca d6       	rcall	.+3476   	; 0x1852 <tone>
				_sound_note_time = (millis_get() + pgm_read_word(&(sound_pattern_doorbell[sound_current_step].time)));
     abe:	d4 dd       	rcall	.-1112   	; 0x668 <millis_get>
     ac0:	e0 91 2d 01 	lds	r30, 0x012D
     ac4:	f0 e0       	ldi	r31, 0x00	; 0
     ac6:	ee 0f       	add	r30, r30
     ac8:	ff 1f       	adc	r31, r31
     aca:	ee 0f       	add	r30, r30
     acc:	ff 1f       	adc	r31, r31
     ace:	ee 0f       	add	r30, r30
     ad0:	ff 1f       	adc	r31, r31
     ad2:	e8 58       	subi	r30, 0x88	; 136
     ad4:	ff 4f       	sbci	r31, 0xFF	; 255
     ad6:	25 91       	lpm	r18, Z+
     ad8:	34 91       	lpm	r19, Z
     ada:	dc 01       	movw	r26, r24
     adc:	cb 01       	movw	r24, r22
     ade:	82 0f       	add	r24, r18
     ae0:	93 1f       	adc	r25, r19
     ae2:	a1 1d       	adc	r26, r1
     ae4:	b1 1d       	adc	r27, r1
     ae6:	80 93 29 01 	sts	0x0129, r24
     aea:	90 93 2a 01 	sts	0x012A, r25
     aee:	a0 93 2b 01 	sts	0x012B, r26
     af2:	b0 93 2c 01 	sts	0x012C, r27
     af6:	8f c0       	rjmp	.+286    	; 0xc16 <_Z9isr_soundv+0x1be>
			}
			else if(sound_current_alarm == 1 ){
     af8:	81 30       	cpi	r24, 0x01	; 1
     afa:	71 f5       	brne	.+92     	; 0xb58 <_Z9isr_soundv+0x100>
				tone(pgm_read_word(&(sound_pattern_phone[sound_current_step].frequency)), 10);
     afc:	e0 91 2d 01 	lds	r30, 0x012D
     b00:	f0 e0       	ldi	r31, 0x00	; 0
     b02:	ee 0f       	add	r30, r30
     b04:	ff 1f       	adc	r31, r31
     b06:	ee 0f       	add	r30, r30
     b08:	ff 1f       	adc	r31, r31
     b0a:	ee 0f       	add	r30, r30
     b0c:	ff 1f       	adc	r31, r31
     b0e:	ec 54       	subi	r30, 0x4C	; 76
     b10:	ff 4f       	sbci	r31, 0xFF	; 255
     b12:	65 91       	lpm	r22, Z+
     b14:	74 91       	lpm	r23, Z
     b16:	80 e0       	ldi	r24, 0x00	; 0
     b18:	90 e0       	ldi	r25, 0x00	; 0
     b1a:	4a e0       	ldi	r20, 0x0A	; 10
     b1c:	9a d6       	rcall	.+3380   	; 0x1852 <tone>
				_sound_note_time = (millis_get() + pgm_read_word(&(sound_pattern_phone[sound_current_step].time)));
     b1e:	a4 dd       	rcall	.-1208   	; 0x668 <millis_get>
     b20:	e0 91 2d 01 	lds	r30, 0x012D
     b24:	f0 e0       	ldi	r31, 0x00	; 0
     b26:	ee 0f       	add	r30, r30
     b28:	ff 1f       	adc	r31, r31
     b2a:	ee 0f       	add	r30, r30
     b2c:	ff 1f       	adc	r31, r31
     b2e:	ee 0f       	add	r30, r30
     b30:	ff 1f       	adc	r31, r31
     b32:	e8 54       	subi	r30, 0x48	; 72
     b34:	ff 4f       	sbci	r31, 0xFF	; 255
     b36:	25 91       	lpm	r18, Z+
     b38:	34 91       	lpm	r19, Z
     b3a:	dc 01       	movw	r26, r24
     b3c:	cb 01       	movw	r24, r22
     b3e:	82 0f       	add	r24, r18
     b40:	93 1f       	adc	r25, r19
     b42:	a1 1d       	adc	r26, r1
     b44:	b1 1d       	adc	r27, r1
     b46:	80 93 29 01 	sts	0x0129, r24
     b4a:	90 93 2a 01 	sts	0x012A, r25
     b4e:	a0 93 2b 01 	sts	0x012B, r26
     b52:	b0 93 2c 01 	sts	0x012C, r27
     b56:	5f c0       	rjmp	.+190    	; 0xc16 <_Z9isr_soundv+0x1be>
			}
			else if(sound_current_alarm == 2 ){
     b58:	82 30       	cpi	r24, 0x02	; 2
     b5a:	71 f5       	brne	.+92     	; 0xbb8 <_Z9isr_soundv+0x160>
				tone(pgm_read_word(&(sound_pattern_fire[sound_current_step].frequency)), 10);
     b5c:	e0 91 2d 01 	lds	r30, 0x012D
     b60:	f0 e0       	ldi	r31, 0x00	; 0
     b62:	ee 0f       	add	r30, r30
     b64:	ff 1f       	adc	r31, r31
     b66:	ee 0f       	add	r30, r30
     b68:	ff 1f       	adc	r31, r31
     b6a:	ee 0f       	add	r30, r30
     b6c:	ff 1f       	adc	r31, r31
     b6e:	ec 54       	subi	r30, 0x4C	; 76
     b70:	fc 4f       	sbci	r31, 0xFC	; 252
     b72:	65 91       	lpm	r22, Z+
     b74:	74 91       	lpm	r23, Z
     b76:	80 e0       	ldi	r24, 0x00	; 0
     b78:	90 e0       	ldi	r25, 0x00	; 0
     b7a:	4a e0       	ldi	r20, 0x0A	; 10
     b7c:	6a d6       	rcall	.+3284   	; 0x1852 <tone>
				_sound_note_time = (millis_get() + pgm_read_word(&(sound_pattern_fire[sound_current_step].time)));
     b7e:	74 dd       	rcall	.-1304   	; 0x668 <millis_get>
     b80:	e0 91 2d 01 	lds	r30, 0x012D
     b84:	f0 e0       	ldi	r31, 0x00	; 0
     b86:	ee 0f       	add	r30, r30
     b88:	ff 1f       	adc	r31, r31
     b8a:	ee 0f       	add	r30, r30
     b8c:	ff 1f       	adc	r31, r31
     b8e:	ee 0f       	add	r30, r30
     b90:	ff 1f       	adc	r31, r31
     b92:	e8 54       	subi	r30, 0x48	; 72
     b94:	fc 4f       	sbci	r31, 0xFC	; 252
     b96:	25 91       	lpm	r18, Z+
     b98:	34 91       	lpm	r19, Z
     b9a:	dc 01       	movw	r26, r24
     b9c:	cb 01       	movw	r24, r22
     b9e:	82 0f       	add	r24, r18
     ba0:	93 1f       	adc	r25, r19
     ba2:	a1 1d       	adc	r26, r1
     ba4:	b1 1d       	adc	r27, r1
     ba6:	80 93 29 01 	sts	0x0129, r24
     baa:	90 93 2a 01 	sts	0x012A, r25
     bae:	a0 93 2b 01 	sts	0x012B, r26
     bb2:	b0 93 2c 01 	sts	0x012C, r27
     bb6:	2f c0       	rjmp	.+94     	; 0xc16 <_Z9isr_soundv+0x1be>
			}
			else if(sound_current_alarm == 3 ){
     bb8:	83 30       	cpi	r24, 0x03	; 3
     bba:	69 f5       	brne	.+90     	; 0xc16 <_Z9isr_soundv+0x1be>
				tone(pgm_read_word(&(sound_pattern_help[sound_current_step].frequency)),10);
     bbc:	e0 91 2d 01 	lds	r30, 0x012D
     bc0:	f0 e0       	ldi	r31, 0x00	; 0
     bc2:	ee 0f       	add	r30, r30
     bc4:	ff 1f       	adc	r31, r31
     bc6:	ee 0f       	add	r30, r30
     bc8:	ff 1f       	adc	r31, r31
     bca:	ee 0f       	add	r30, r30
     bcc:	ff 1f       	adc	r31, r31
     bce:	ec 5c       	subi	r30, 0xCC	; 204
     bd0:	fb 4f       	sbci	r31, 0xFB	; 251
     bd2:	65 91       	lpm	r22, Z+
     bd4:	74 91       	lpm	r23, Z
     bd6:	80 e0       	ldi	r24, 0x00	; 0
     bd8:	90 e0       	ldi	r25, 0x00	; 0
     bda:	4a e0       	ldi	r20, 0x0A	; 10
     bdc:	3a d6       	rcall	.+3188   	; 0x1852 <tone>
				_sound_note_time = (millis_get() + pgm_read_word(&(sound_pattern_help[sound_current_step].time)));
     bde:	44 dd       	rcall	.-1400   	; 0x668 <millis_get>
     be0:	e0 91 2d 01 	lds	r30, 0x012D
     be4:	f0 e0       	ldi	r31, 0x00	; 0
     be6:	ee 0f       	add	r30, r30
     be8:	ff 1f       	adc	r31, r31
     bea:	ee 0f       	add	r30, r30
     bec:	ff 1f       	adc	r31, r31
     bee:	ee 0f       	add	r30, r30
     bf0:	ff 1f       	adc	r31, r31
     bf2:	e8 5c       	subi	r30, 0xC8	; 200
     bf4:	fb 4f       	sbci	r31, 0xFB	; 251
     bf6:	25 91       	lpm	r18, Z+
     bf8:	34 91       	lpm	r19, Z
     bfa:	dc 01       	movw	r26, r24
     bfc:	cb 01       	movw	r24, r22
     bfe:	82 0f       	add	r24, r18
     c00:	93 1f       	adc	r25, r19
     c02:	a1 1d       	adc	r26, r1
     c04:	b1 1d       	adc	r27, r1
     c06:	80 93 29 01 	sts	0x0129, r24
     c0a:	90 93 2a 01 	sts	0x012A, r25
     c0e:	a0 93 2b 01 	sts	0x012B, r26
     c12:	b0 93 2c 01 	sts	0x012C, r27
			}
			
		//_sound_note_time = millis_get() + 1000;
			
			// is variable sound_current_step equal to de total steps?
			if(sound_current_step >= (sound_alarm_keys[sound_current_alarm] -1)){
     c16:	50 91 2d 01 	lds	r21, 0x012D
     c1a:	40 91 2e 01 	lds	r20, 0x012E
     c1e:	25 2f       	mov	r18, r21
     c20:	30 e0       	ldi	r19, 0x00	; 0
     c22:	e4 2f       	mov	r30, r20
     c24:	f0 e0       	ldi	r31, 0x00	; 0
     c26:	ee 5e       	subi	r30, 0xEE	; 238
     c28:	fe 4f       	sbci	r31, 0xFE	; 254
     c2a:	80 81       	ld	r24, Z
     c2c:	90 e0       	ldi	r25, 0x00	; 0
     c2e:	01 97       	sbiw	r24, 0x01	; 1
     c30:	28 17       	cp	r18, r24
     c32:	39 07       	cpc	r19, r25
     c34:	d4 f0       	brlt	.+52     	; 0xc6a <_Z9isr_soundv+0x212>
				uint8_t done = 0;
				while(done == 0){
					sound_current_alarm++; // sound_current_alarm plus one
					if(sound_current_alarm == 4) { sound_current_alarm = 0; } // if sound_current_alarm is 4 than go back to 0
					
					if(active_alarm & (alarm_bitmask[sound_current_alarm]) ){ // check if next alarm is active
     c36:	20 91 33 01 	lds	r18, 0x0133
						done = 1;
					}
				
					if(!(active_alarm & 0x0F)){ // is there ANY alarm active??
     c3a:	92 2f       	mov	r25, r18
     c3c:	9f 70       	andi	r25, 0x0F	; 15
				// go to next sound
				
				uint8_t done = 0;
				while(done == 0){
					sound_current_alarm++; // sound_current_alarm plus one
					if(sound_current_alarm == 4) { sound_current_alarm = 0; } // if sound_current_alarm is 4 than go back to 0
     c3e:	30 e0       	ldi	r19, 0x00	; 0
			if(sound_current_step >= (sound_alarm_keys[sound_current_alarm] -1)){
				// go to next sound
				
				uint8_t done = 0;
				while(done == 0){
					sound_current_alarm++; // sound_current_alarm plus one
     c40:	4f 5f       	subi	r20, 0xFF	; 255
					if(sound_current_alarm == 4) { sound_current_alarm = 0; } // if sound_current_alarm is 4 than go back to 0
     c42:	44 30       	cpi	r20, 0x04	; 4
     c44:	09 f4       	brne	.+2      	; 0xc48 <_Z9isr_soundv+0x1f0>
     c46:	43 2f       	mov	r20, r19
					
					if(active_alarm & (alarm_bitmask[sound_current_alarm]) ){ // check if next alarm is active
     c48:	e4 2f       	mov	r30, r20
     c4a:	f0 e0       	ldi	r31, 0x00	; 0
     c4c:	e2 5f       	subi	r30, 0xF2	; 242
     c4e:	fe 4f       	sbci	r31, 0xFE	; 254
     c50:	80 81       	ld	r24, Z
						done = 1;
					}
				
					if(!(active_alarm & 0x0F)){ // is there ANY alarm active??
     c52:	91 11       	cpse	r25, r1
     c54:	03 c0       	rjmp	.+6      	; 0xc5c <_Z9isr_soundv+0x204>
     c56:	40 93 2e 01 	sts	0x012E, r20
     c5a:	04 c0       	rjmp	.+8      	; 0xc64 <_Z9isr_soundv+0x20c>
				uint8_t done = 0;
				while(done == 0){
					sound_current_alarm++; // sound_current_alarm plus one
					if(sound_current_alarm == 4) { sound_current_alarm = 0; } // if sound_current_alarm is 4 than go back to 0
					
					if(active_alarm & (alarm_bitmask[sound_current_alarm]) ){ // check if next alarm is active
     c5c:	82 23       	and	r24, r18
			// is variable sound_current_step equal to de total steps?
			if(sound_current_step >= (sound_alarm_keys[sound_current_alarm] -1)){
				// go to next sound
				
				uint8_t done = 0;
				while(done == 0){
     c5e:	81 f3       	breq	.-32     	; 0xc40 <_Z9isr_soundv+0x1e8>
     c60:	40 93 2e 01 	sts	0x012E, r20
						done = 1; // in case there is no active alarm anymore, just breakout while
					}

				} // while
				
				sound_current_step = 0; // reset sound_current_step to zero to start the next sound	
     c64:	10 92 2d 01 	sts	0x012D, r1
     c68:	03 c0       	rjmp	.+6      	; 0xc70 <_Z9isr_soundv+0x218>
				
			}else{
				// set sound_current_step plus one
				sound_current_step++;
     c6a:	5f 5f       	subi	r21, 0xFF	; 255
     c6c:	50 93 2d 01 	sts	0x012D, r21
			}
	
				
		} //void isr_sound()
     c70:	1f 91       	pop	r17
     c72:	0f 91       	pop	r16
     c74:	08 95       	ret

00000c76 <_Z15isr_light_flashv>:
		
	void isr_light_flash(){
     c76:	0f 93       	push	r16
     c78:	1f 93       	push	r17
     c7a:	cf 93       	push	r28
     c7c:	df 93       	push	r29
			
		// Do we need to go to the next flash?
		if(_flash_time != 0){ // is there already a flash ?
     c7e:	80 91 24 01 	lds	r24, 0x0124
     c82:	90 91 25 01 	lds	r25, 0x0125
     c86:	a0 91 26 01 	lds	r26, 0x0126
     c8a:	b0 91 27 01 	lds	r27, 0x0127
     c8e:	89 2b       	or	r24, r25
     c90:	8a 2b       	or	r24, r26
     c92:	8b 2b       	or	r24, r27
     c94:	09 f4       	brne	.+2      	; 0xc98 <_Z15isr_light_flashv+0x22>
     c96:	48 c0       	rjmp	.+144    	; 0xd28 <_Z15isr_light_flashv+0xb2>
			if(millis_get() < _flash_time ){ // Do we need to stop the current note?
     c98:	e7 dc       	rcall	.-1586   	; 0x668 <millis_get>
     c9a:	00 91 24 01 	lds	r16, 0x0124
     c9e:	10 91 25 01 	lds	r17, 0x0125
     ca2:	20 91 26 01 	lds	r18, 0x0126
     ca6:	30 91 27 01 	lds	r19, 0x0127
     caa:	60 17       	cp	r22, r16
     cac:	71 07       	cpc	r23, r17
     cae:	82 07       	cpc	r24, r18
     cb0:	93 07       	cpc	r25, r19
     cb2:	08 f0       	brcs	.+2      	; 0xcb6 <_Z15isr_light_flashv+0x40>
     cb4:	39 c0       	rjmp	.+114    	; 0xd28 <_Z15isr_light_flashv+0xb2>
     cb6:	3b c0       	rjmp	.+118    	; 0xd2e <_Z15isr_light_flashv+0xb8>
		}
						
			
		// get next flash and send it to the PCA9635
		for (byte j = 0; j <= 3; j++){
		pca9635_set_led_pwm( j+3, pgm_read_byte(&(flash_pattern[_flash_current_step].led[j])));
     cb8:	80 91 28 01 	lds	r24, 0x0128
     cbc:	fe 01       	movw	r30, r28
     cbe:	98 e0       	ldi	r25, 0x08	; 8
     cc0:	89 9f       	mul	r24, r25
     cc2:	e0 0d       	add	r30, r0
     cc4:	f1 1d       	adc	r31, r1
     cc6:	11 24       	eor	r1, r1
     cc8:	e4 58       	subi	r30, 0x84	; 132
     cca:	fb 4f       	sbci	r31, 0xFB	; 251
     ccc:	64 91       	lpm	r22, Z
     cce:	8c 2f       	mov	r24, r28
     cd0:	8d 5f       	subi	r24, 0xFD	; 253
     cd2:	7a d1       	rcall	.+756    	; 0xfc8 <pca9635_set_led_pwm>
     cd4:	21 96       	adiw	r28, 0x01	; 1
			}						
		}
						
			
		// get next flash and send it to the PCA9635
		for (byte j = 0; j <= 3; j++){
     cd6:	c4 30       	cpi	r28, 0x04	; 4
     cd8:	d1 05       	cpc	r29, r1
     cda:	71 f7       	brne	.-36     	; 0xcb8 <_Z15isr_light_flashv+0x42>
		pca9635_set_led_pwm( j+3, pgm_read_byte(&(flash_pattern[_flash_current_step].led[j])));
		}
		
		_flash_time = millis_get() + pgm_read_word(&(flash_pattern[_flash_current_step].time));
     cdc:	c5 dc       	rcall	.-1654   	; 0x668 <millis_get>
     cde:	40 91 28 01 	lds	r20, 0x0128
     ce2:	e4 2f       	mov	r30, r20
     ce4:	f0 e0       	ldi	r31, 0x00	; 0
     ce6:	ee 0f       	add	r30, r30
     ce8:	ff 1f       	adc	r31, r31
     cea:	ee 0f       	add	r30, r30
     cec:	ff 1f       	adc	r31, r31
     cee:	ee 0f       	add	r30, r30
     cf0:	ff 1f       	adc	r31, r31
     cf2:	e0 58       	subi	r30, 0x80	; 128
     cf4:	fb 4f       	sbci	r31, 0xFB	; 251
     cf6:	25 91       	lpm	r18, Z+
     cf8:	34 91       	lpm	r19, Z
     cfa:	dc 01       	movw	r26, r24
     cfc:	cb 01       	movw	r24, r22
     cfe:	82 0f       	add	r24, r18
     d00:	93 1f       	adc	r25, r19
     d02:	a1 1d       	adc	r26, r1
     d04:	b1 1d       	adc	r27, r1
     d06:	80 93 24 01 	sts	0x0124, r24
     d0a:	90 93 25 01 	sts	0x0125, r25
     d0e:	a0 93 26 01 	sts	0x0126, r26
     d12:	b0 93 27 01 	sts	0x0127, r27
			
		// is variable _flash_current_step equal to total steps?
		if(_flash_current_step == (flash_keys -1 )) {
     d16:	4f 31       	cpi	r20, 0x1F	; 31
     d18:	19 f4       	brne	.+6      	; 0xd20 <_Z15isr_light_flashv+0xaa>
			//reset _flash_current_step to 0
			_flash_current_step = 0;				
     d1a:	10 92 28 01 	sts	0x0128, r1
     d1e:	07 c0       	rjmp	.+14     	; 0xd2e <_Z15isr_light_flashv+0xb8>
		}else{
			// set _flash_current_step +1
			_flash_current_step++;
     d20:	4f 5f       	subi	r20, 0xFF	; 255
     d22:	40 93 28 01 	sts	0x0128, r20
     d26:	03 c0       	rjmp	.+6      	; 0xd2e <_Z15isr_light_flashv+0xb8>
			}
	
				
		} //void isr_sound()
		
	void isr_light_flash(){
     d28:	c0 e0       	ldi	r28, 0x00	; 0
     d2a:	d0 e0       	ldi	r29, 0x00	; 0
     d2c:	c5 cf       	rjmp	.-118    	; 0xcb8 <_Z15isr_light_flashv+0x42>
		}else{
			// set _flash_current_step +1
			_flash_current_step++;
		}
		
	} // END isr_light_flash
     d2e:	df 91       	pop	r29
     d30:	cf 91       	pop	r28
     d32:	1f 91       	pop	r17
     d34:	0f 91       	pop	r16
     d36:	08 95       	ret

00000d38 <_Z14isr_light_iconv>:
		
		
		
		
		
	void isr_light_icon(){
     d38:	0f 93       	push	r16
     d3a:	1f 93       	push	r17
     d3c:	cf 93       	push	r28
     d3e:	df 93       	push	r29
		
		// Do we need to go to the next flash?
		if(_icon_time != 0){ // is there already a flash ?
     d40:	80 91 1e 01 	lds	r24, 0x011E
     d44:	90 91 1f 01 	lds	r25, 0x011F
     d48:	a0 91 20 01 	lds	r26, 0x0120
     d4c:	b0 91 21 01 	lds	r27, 0x0121
     d50:	89 2b       	or	r24, r25
     d52:	8a 2b       	or	r24, r26
     d54:	8b 2b       	or	r24, r27
     d56:	79 f0       	breq	.+30     	; 0xd76 <_Z14isr_light_iconv+0x3e>
			if(millis_get() < _icon_time ){ // Do we need to stop the current note?
     d58:	87 dc       	rcall	.-1778   	; 0x668 <millis_get>
     d5a:	00 91 1e 01 	lds	r16, 0x011E
     d5e:	10 91 1f 01 	lds	r17, 0x011F
     d62:	20 91 20 01 	lds	r18, 0x0120
     d66:	30 91 21 01 	lds	r19, 0x0121
     d6a:	60 17       	cp	r22, r16
     d6c:	71 07       	cpc	r23, r17
     d6e:	82 07       	cpc	r24, r18
     d70:	93 07       	cpc	r25, r19
     d72:	08 f4       	brcc	.+2      	; 0xd76 <_Z14isr_light_iconv+0x3e>
     d74:	81 c0       	rjmp	.+258    	; 0xe78 <_Z14isr_light_iconv+0x140>
	// step 2 = 250 - (2 x 25)  = 200
	// step 11 = (if step == 11) brightness = 255
	
	// calculate intensity based on step
	uint16_t intensity;
	if(icon_current_step == 0 || icon_current_step == 11){ // if current step is 0 or 11 then intensity is 255
     d76:	20 91 22 01 	lds	r18, 0x0122
     d7a:	22 23       	and	r18, r18
     d7c:	19 f0       	breq	.+6      	; 0xd84 <_Z14isr_light_iconv+0x4c>
     d7e:	2b 30       	cpi	r18, 0x0B	; 11
     d80:	21 f5       	brne	.+72     	; 0xdca <_Z14isr_light_iconv+0x92>
     d82:	12 c0       	rjmp	.+36     	; 0xda8 <_Z14isr_light_iconv+0x70>
		intensity = 255;
		
		if(icon_current_step == 0){
			_icon_time = millis_get() + 1000;
     d84:	71 dc       	rcall	.-1822   	; 0x668 <millis_get>
     d86:	dc 01       	movw	r26, r24
     d88:	cb 01       	movw	r24, r22
     d8a:	88 51       	subi	r24, 0x18	; 24
     d8c:	9c 4f       	sbci	r25, 0xFC	; 252
     d8e:	af 4f       	sbci	r26, 0xFF	; 255
     d90:	bf 4f       	sbci	r27, 0xFF	; 255
     d92:	80 93 1e 01 	sts	0x011E, r24
     d96:	90 93 1f 01 	sts	0x011F, r25
     d9a:	a0 93 20 01 	sts	0x0120, r26
     d9e:	b0 93 21 01 	sts	0x0121, r27
	// step 11 = (if step == 11) brightness = 255
	
	// calculate intensity based on step
	uint16_t intensity;
	if(icon_current_step == 0 || icon_current_step == 11){ // if current step is 0 or 11 then intensity is 255
		intensity = 255;
     da2:	cf ef       	ldi	r28, 0xFF	; 255
     da4:	d0 e0       	ldi	r29, 0x00	; 0
     da6:	25 c0       	rjmp	.+74     	; 0xdf2 <_Z14isr_light_iconv+0xba>
		
		if(icon_current_step == 0){
			_icon_time = millis_get() + 1000;
		}else if(icon_current_step == 11){ // last step - set led full on, and go to next icon
			_icon_time = millis_get() + 1;
     da8:	5f dc       	rcall	.-1858   	; 0x668 <millis_get>
     daa:	dc 01       	movw	r26, r24
     dac:	cb 01       	movw	r24, r22
     dae:	01 96       	adiw	r24, 0x01	; 1
     db0:	a1 1d       	adc	r26, r1
     db2:	b1 1d       	adc	r27, r1
     db4:	80 93 1e 01 	sts	0x011E, r24
     db8:	90 93 1f 01 	sts	0x011F, r25
     dbc:	a0 93 20 01 	sts	0x0120, r26
     dc0:	b0 93 21 01 	sts	0x0121, r27
	// step 11 = (if step == 11) brightness = 255
	
	// calculate intensity based on step
	uint16_t intensity;
	if(icon_current_step == 0 || icon_current_step == 11){ // if current step is 0 or 11 then intensity is 255
		intensity = 255;
     dc4:	cf ef       	ldi	r28, 0xFF	; 255
     dc6:	d0 e0       	ldi	r29, 0x00	; 0
     dc8:	14 c0       	rjmp	.+40     	; 0xdf2 <_Z14isr_light_iconv+0xba>
		}else if(icon_current_step == 11){ // last step - set led full on, and go to next icon
			_icon_time = millis_get() + 1;
		}
			
	}else{
		intensity = (250 - (icon_current_step * 25)); // step 1 to 10, 
     dca:	37 ee       	ldi	r19, 0xE7	; 231
     dcc:	32 03       	mulsu	r19, r18
     dce:	e0 01       	movw	r28, r0
     dd0:	11 24       	eor	r1, r1
     dd2:	c6 50       	subi	r28, 0x06	; 6
     dd4:	df 4f       	sbci	r29, 0xFF	; 255
		_icon_time = millis_get() + 30;
     dd6:	48 dc       	rcall	.-1904   	; 0x668 <millis_get>
     dd8:	dc 01       	movw	r26, r24
     dda:	cb 01       	movw	r24, r22
     ddc:	4e 96       	adiw	r24, 0x1e	; 30
     dde:	a1 1d       	adc	r26, r1
     de0:	b1 1d       	adc	r27, r1
     de2:	80 93 1e 01 	sts	0x011E, r24
     de6:	90 93 1f 01 	sts	0x011F, r25
     dea:	a0 93 20 01 	sts	0x0120, r26
     dee:	b0 93 21 01 	sts	0x0121, r27
	// step 11 = (if step == 11) brightness = 255
	
	// calculate intensity based on step
	uint16_t intensity;
	if(icon_current_step == 0 || icon_current_step == 11){ // if current step is 0 or 11 then intensity is 255
		intensity = 255;
     df2:	00 e0       	ldi	r16, 0x00	; 0
     df4:	10 e0       	ldi	r17, 0x00	; 0
		}
	
	
	// get next flash and send it to the PCA9635
	for (byte j = 0; j <= 2; j++){
		uint8_t _dimmed_color = ((pgm_read_byte(&(icon_colors[icon_current_alarm].color[j])) * intensity) >> 8); // calculate dimmed color
     df6:	80 91 23 01 	lds	r24, 0x0123
     dfa:	90 e0       	ldi	r25, 0x00	; 0
     dfc:	9c 01       	movw	r18, r24
     dfe:	22 0f       	add	r18, r18
     e00:	33 1f       	adc	r19, r19
     e02:	82 0f       	add	r24, r18
     e04:	93 1f       	adc	r25, r19
     e06:	80 0f       	add	r24, r16
     e08:	91 1f       	adc	r25, r17
     e0a:	fc 01       	movw	r30, r24
     e0c:	e4 58       	subi	r30, 0x84	; 132
     e0e:	fa 4f       	sbci	r31, 0xFA	; 250
     e10:	44 91       	lpm	r20, Z
		pca9635_set_led_pwm( pgm_read_byte(&(icon_led_numbers[icon_current_alarm].lednr[j])), _dimmed_color);
     e12:	fc 01       	movw	r30, r24
     e14:	e8 59       	subi	r30, 0x98	; 152
     e16:	ff 4f       	sbci	r31, 0xFF	; 255
     e18:	84 91       	lpm	r24, Z
		}
	
	
	// get next flash and send it to the PCA9635
	for (byte j = 0; j <= 2; j++){
		uint8_t _dimmed_color = ((pgm_read_byte(&(icon_colors[icon_current_alarm].color[j])) * intensity) >> 8); // calculate dimmed color
     e1a:	4c 9f       	mul	r20, r28
     e1c:	90 01       	movw	r18, r0
     e1e:	4d 9f       	mul	r20, r29
     e20:	30 0d       	add	r19, r0
     e22:	11 24       	eor	r1, r1
		pca9635_set_led_pwm( pgm_read_byte(&(icon_led_numbers[icon_current_alarm].lednr[j])), _dimmed_color);
     e24:	63 2f       	mov	r22, r19
     e26:	d0 d0       	rcall	.+416    	; 0xfc8 <pca9635_set_led_pwm>
     e28:	0f 5f       	subi	r16, 0xFF	; 255
     e2a:	1f 4f       	sbci	r17, 0xFF	; 255
		_icon_time = millis_get() + 30;
		}
	
	
	// get next flash and send it to the PCA9635
	for (byte j = 0; j <= 2; j++){
     e2c:	03 30       	cpi	r16, 0x03	; 3
     e2e:	11 05       	cpc	r17, r1
     e30:	11 f7       	brne	.-60     	; 0xdf6 <_Z14isr_light_iconv+0xbe>
		pca9635_set_led_pwm( pgm_read_byte(&(icon_led_numbers[icon_current_alarm].lednr[j])), _dimmed_color);
	}
	

	// is variable _flash_current_step equal to total steps?
	if(icon_current_step == 11) {
     e32:	80 91 22 01 	lds	r24, 0x0122
     e36:	8b 30       	cpi	r24, 0x0B	; 11
     e38:	e1 f4       	brne	.+56     	; 0xe72 <_Z14isr_light_iconv+0x13a>
		//reset _flash_current_step to 0
		icon_current_step = 0;
     e3a:	10 92 22 01 	sts	0x0122, r1
			uint8_t done = 0;
			while(done == 0){
				icon_current_alarm++; // sound_current_alarm plus one
				if(icon_current_alarm == 4) { icon_current_alarm = 0; } // if sound_current_alarm is 4 than go back to 0
				
				if(active_alarm & (alarm_bitmask[icon_current_alarm]) ){ // check if next alarm is active
     e3e:	30 91 33 01 	lds	r19, 0x0133
					done = 1;
				}
				
				if(!(active_alarm & 0x0F)){ // is there ANY alarm active??
     e42:	23 2f       	mov	r18, r19
     e44:	2f 70       	andi	r18, 0x0F	; 15
     e46:	80 91 23 01 	lds	r24, 0x0123
		
			
			uint8_t done = 0;
			while(done == 0){
				icon_current_alarm++; // sound_current_alarm plus one
				if(icon_current_alarm == 4) { icon_current_alarm = 0; } // if sound_current_alarm is 4 than go back to 0
     e4a:	40 e0       	ldi	r20, 0x00	; 0
		icon_current_step = 0;
		
			
			uint8_t done = 0;
			while(done == 0){
				icon_current_alarm++; // sound_current_alarm plus one
     e4c:	8f 5f       	subi	r24, 0xFF	; 255
				if(icon_current_alarm == 4) { icon_current_alarm = 0; } // if sound_current_alarm is 4 than go back to 0
     e4e:	84 30       	cpi	r24, 0x04	; 4
     e50:	09 f4       	brne	.+2      	; 0xe54 <_Z14isr_light_iconv+0x11c>
     e52:	84 2f       	mov	r24, r20
				
				if(active_alarm & (alarm_bitmask[icon_current_alarm]) ){ // check if next alarm is active
     e54:	e8 2f       	mov	r30, r24
     e56:	f0 e0       	ldi	r31, 0x00	; 0
     e58:	e2 5f       	subi	r30, 0xF2	; 242
     e5a:	fe 4f       	sbci	r31, 0xFE	; 254
     e5c:	90 81       	ld	r25, Z
					done = 1;
				}
				
				if(!(active_alarm & 0x0F)){ // is there ANY alarm active??
     e5e:	21 11       	cpse	r18, r1
     e60:	03 c0       	rjmp	.+6      	; 0xe68 <_Z14isr_light_iconv+0x130>
     e62:	80 93 23 01 	sts	0x0123, r24
     e66:	08 c0       	rjmp	.+16     	; 0xe78 <_Z14isr_light_iconv+0x140>
			uint8_t done = 0;
			while(done == 0){
				icon_current_alarm++; // sound_current_alarm plus one
				if(icon_current_alarm == 4) { icon_current_alarm = 0; } // if sound_current_alarm is 4 than go back to 0
				
				if(active_alarm & (alarm_bitmask[icon_current_alarm]) ){ // check if next alarm is active
     e68:	93 23       	and	r25, r19
		//reset _flash_current_step to 0
		icon_current_step = 0;
		
			
			uint8_t done = 0;
			while(done == 0){
     e6a:	81 f3       	breq	.-32     	; 0xe4c <_Z14isr_light_iconv+0x114>
     e6c:	80 93 23 01 	sts	0x0123, r24
     e70:	03 c0       	rjmp	.+6      	; 0xe78 <_Z14isr_light_iconv+0x140>
			} // while
			
			
		}else{
		// set _flash_current_step +1
		icon_current_step++;
     e72:	8f 5f       	subi	r24, 0xFF	; 255
     e74:	80 93 22 01 	sts	0x0122, r24
	}
	
     e78:	df 91       	pop	r29
     e7a:	cf 91       	pop	r28
     e7c:	1f 91       	pop	r17
     e7e:	0f 91       	pop	r16
     e80:	08 95       	ret

00000e82 <__vector_7>:

	
	
	
	
ISR (TIMER2_COMPA_vect) {
     e82:	1f 92       	push	r1
     e84:	0f 92       	push	r0
     e86:	0f b6       	in	r0, 0x3f	; 63
     e88:	0f 92       	push	r0
     e8a:	11 24       	eor	r1, r1
     e8c:	0f 93       	push	r16
     e8e:	1f 93       	push	r17
     e90:	2f 93       	push	r18
     e92:	3f 93       	push	r19
     e94:	4f 93       	push	r20
     e96:	5f 93       	push	r21
     e98:	6f 93       	push	r22
     e9a:	7f 93       	push	r23
     e9c:	8f 93       	push	r24
     e9e:	9f 93       	push	r25
     ea0:	af 93       	push	r26
     ea2:	bf 93       	push	r27
     ea4:	ef 93       	push	r30
     ea6:	ff 93       	push	r31

	// check if the alarm needs to be stopped
	if(millis_get() >= active_alarm_time || active_alarm_time == 0){
     ea8:	df db       	rcall	.-2114   	; 0x668 <millis_get>
     eaa:	00 91 2f 01 	lds	r16, 0x012F
     eae:	10 91 30 01 	lds	r17, 0x0130
     eb2:	20 91 31 01 	lds	r18, 0x0131
     eb6:	30 91 32 01 	lds	r19, 0x0132
     eba:	60 17       	cp	r22, r16
     ebc:	71 07       	cpc	r23, r17
     ebe:	82 07       	cpc	r24, r18
     ec0:	93 07       	cpc	r25, r19
     ec2:	20 f4       	brcc	.+8      	; 0xecc <__vector_7+0x4a>
     ec4:	01 2b       	or	r16, r17
     ec6:	02 2b       	or	r16, r18
     ec8:	03 2b       	or	r16, r19
     eca:	99 f5       	brne	.+102    	; 0xf32 <__vector_7+0xb0>
		// stop alarm
			
			// reset steps of sound, flash and icon
			sound_current_step		= 0;
     ecc:	10 92 2d 01 	sts	0x012D, r1
			_sound_note_time		= 0;
     ed0:	10 92 29 01 	sts	0x0129, r1
     ed4:	10 92 2a 01 	sts	0x012A, r1
     ed8:	10 92 2b 01 	sts	0x012B, r1
     edc:	10 92 2c 01 	sts	0x012C, r1
										
			_flash_current_step		= 0;
     ee0:	10 92 28 01 	sts	0x0128, r1
			_flash_time				= 0;
     ee4:	10 92 24 01 	sts	0x0124, r1
     ee8:	10 92 25 01 	sts	0x0125, r1
     eec:	10 92 26 01 	sts	0x0126, r1
     ef0:	10 92 27 01 	sts	0x0127, r1
										
			icon_current_step		= 0;
     ef4:	10 92 22 01 	sts	0x0122, r1
			_icon_time				= 0;
     ef8:	10 92 1e 01 	sts	0x011E, r1
     efc:	10 92 1f 01 	sts	0x011F, r1
     f00:	10 92 20 01 	sts	0x0120, r1
     f04:	10 92 21 01 	sts	0x0121, r1
										
			// empty alarm arrray
			active_alarm = 0x00; 
     f08:	10 92 33 01 	sts	0x0133, r1
			active_alarm_time = 0;
     f0c:	10 92 2f 01 	sts	0x012F, r1
     f10:	10 92 30 01 	sts	0x0130, r1
     f14:	10 92 31 01 	sts	0x0131, r1
     f18:	10 92 32 01 	sts	0x0132, r1
					
			// alle leds uit, pca in slaapstand
			pca9635_set_all_led_pwm(0); // dimm all leds to zero
     f1c:	80 e0       	ldi	r24, 0x00	; 0
     f1e:	65 d0       	rcall	.+202    	; 0xfea <pca9635_set_all_led_pwm>
			pca9635_set_sleep(1); // put pca9635 in sleep
     f20:	81 e0       	ldi	r24, 0x01	; 1
     f22:	73 d0       	rcall	.+230    	; 0x100a <pca9635_set_sleep>
			// automatisch slapen in loop.

			//uart0_puts("STOPINT");
			// stop timer 0
			millis_pause();
     f24:	c0 db       	rcall	.-2176   	; 0x6a6 <millis_pause>
			
			// stop sound
			noTone();
     f26:	8d d4       	rcall	.+2330   	; 0x1842 <noTone>
			
			// stop timer 2
			timer2_pause();
     f28:	19 dc       	rcall	.-1998   	; 0x75c <_Z12timer2_pausev>
			
			deep_sleep_ok = 1;
     f2a:	81 e0       	ldi	r24, 0x01	; 1
     f2c:	80 93 34 01 	sts	0x0134, r24
     f30:	03 c0       	rjmp	.+6      	; 0xf38 <__vector_7+0xb6>
					
	}else{
		// continue alarm
		isr_sound();
     f32:	92 dd       	rcall	.-1244   	; 0xa58 <_Z9isr_soundv>
	    isr_light_flash();
     f34:	a0 de       	rcall	.-704    	; 0xc76 <_Z15isr_light_flashv>
		isr_light_icon();		
     f36:	00 df       	rcall	.-512    	; 0xd38 <_Z14isr_light_iconv>
	}
						
}
     f38:	ff 91       	pop	r31
     f3a:	ef 91       	pop	r30
     f3c:	bf 91       	pop	r27
     f3e:	af 91       	pop	r26
     f40:	9f 91       	pop	r25
     f42:	8f 91       	pop	r24
     f44:	7f 91       	pop	r23
     f46:	6f 91       	pop	r22
     f48:	5f 91       	pop	r21
     f4a:	4f 91       	pop	r20
     f4c:	3f 91       	pop	r19
     f4e:	2f 91       	pop	r18
     f50:	1f 91       	pop	r17
     f52:	0f 91       	pop	r16
     f54:	0f 90       	pop	r0
     f56:	0f be       	out	0x3f, r0	; 63
     f58:	0f 90       	pop	r0
     f5a:	1f 90       	pop	r1
     f5c:	18 95       	reti

00000f5e <pca9635_init>:
	   I2C_write(value);	
  	}
			  
  	I2C_stop();
		  
}
     f5e:	80 e8       	ldi	r24, 0x80	; 128
     f60:	34 db       	rcall	.-2456   	; 0x5ca <I2C_start>
     f62:	80 e8       	ldi	r24, 0x80	; 128
     f64:	57 db       	rcall	.-2386   	; 0x614 <I2C_write>
     f66:	80 e8       	ldi	r24, 0x80	; 128
     f68:	55 db       	rcall	.-2390   	; 0x614 <I2C_write>
     f6a:	82 e0       	ldi	r24, 0x02	; 2
     f6c:	53 db       	rcall	.-2394   	; 0x614 <I2C_write>
     f6e:	81 e0       	ldi	r24, 0x01	; 1
     f70:	51 db       	rcall	.-2398   	; 0x614 <I2C_write>
     f72:	81 e0       	ldi	r24, 0x01	; 1
     f74:	4f db       	rcall	.-2402   	; 0x614 <I2C_write>
     f76:	81 e0       	ldi	r24, 0x01	; 1
     f78:	4d db       	rcall	.-2406   	; 0x614 <I2C_write>
     f7a:	81 e0       	ldi	r24, 0x01	; 1
     f7c:	4b db       	rcall	.-2410   	; 0x614 <I2C_write>
     f7e:	81 e0       	ldi	r24, 0x01	; 1
     f80:	49 db       	rcall	.-2414   	; 0x614 <I2C_write>
     f82:	81 e0       	ldi	r24, 0x01	; 1
     f84:	47 db       	rcall	.-2418   	; 0x614 <I2C_write>
     f86:	81 e0       	ldi	r24, 0x01	; 1
     f88:	45 db       	rcall	.-2422   	; 0x614 <I2C_write>
     f8a:	81 e0       	ldi	r24, 0x01	; 1
     f8c:	43 db       	rcall	.-2426   	; 0x614 <I2C_write>
     f8e:	81 e0       	ldi	r24, 0x01	; 1
     f90:	41 db       	rcall	.-2430   	; 0x614 <I2C_write>
     f92:	81 e0       	ldi	r24, 0x01	; 1
     f94:	3f db       	rcall	.-2434   	; 0x614 <I2C_write>
     f96:	81 e0       	ldi	r24, 0x01	; 1
     f98:	3d db       	rcall	.-2438   	; 0x614 <I2C_write>
     f9a:	81 e0       	ldi	r24, 0x01	; 1
     f9c:	3b db       	rcall	.-2442   	; 0x614 <I2C_write>
     f9e:	81 e0       	ldi	r24, 0x01	; 1
     fa0:	39 db       	rcall	.-2446   	; 0x614 <I2C_write>
     fa2:	81 e0       	ldi	r24, 0x01	; 1
     fa4:	37 db       	rcall	.-2450   	; 0x614 <I2C_write>
     fa6:	81 e0       	ldi	r24, 0x01	; 1
     fa8:	35 db       	rcall	.-2454   	; 0x614 <I2C_write>
     faa:	81 e0       	ldi	r24, 0x01	; 1
     fac:	33 db       	rcall	.-2458   	; 0x614 <I2C_write>
     fae:	8f ef       	ldi	r24, 0xFF	; 255
     fb0:	31 db       	rcall	.-2462   	; 0x614 <I2C_write>
     fb2:	80 e0       	ldi	r24, 0x00	; 0
     fb4:	2f db       	rcall	.-2466   	; 0x614 <I2C_write>
     fb6:	8a ea       	ldi	r24, 0xAA	; 170
     fb8:	2d db       	rcall	.-2470   	; 0x614 <I2C_write>
     fba:	8a ea       	ldi	r24, 0xAA	; 170
     fbc:	2b db       	rcall	.-2474   	; 0x614 <I2C_write>
     fbe:	8a ea       	ldi	r24, 0xAA	; 170
     fc0:	29 db       	rcall	.-2478   	; 0x614 <I2C_write>
     fc2:	8a ea       	ldi	r24, 0xAA	; 170
     fc4:	27 db       	rcall	.-2482   	; 0x614 <I2C_write>
     fc6:	43 cb       	rjmp	.-2426   	; 0x64e <I2C_stop>

00000fc8 <pca9635_set_led_pwm>:
     fc8:	cf 93       	push	r28
     fca:	df 93       	push	r29
     fcc:	d8 2f       	mov	r29, r24
     fce:	c6 2f       	mov	r28, r22
     fd0:	80 e8       	ldi	r24, 0x80	; 128
     fd2:	fb da       	rcall	.-2570   	; 0x5ca <I2C_start>
     fd4:	8d 2f       	mov	r24, r29
     fd6:	8e 5f       	subi	r24, 0xFE	; 254
     fd8:	80 68       	ori	r24, 0x80	; 128
     fda:	1c db       	rcall	.-2504   	; 0x614 <I2C_write>
     fdc:	8c 2f       	mov	r24, r28
     fde:	1a db       	rcall	.-2508   	; 0x614 <I2C_write>
     fe0:	36 db       	rcall	.-2452   	; 0x64e <I2C_stop>
     fe2:	81 e0       	ldi	r24, 0x01	; 1
     fe4:	df 91       	pop	r29
     fe6:	cf 91       	pop	r28
     fe8:	08 95       	ret

00000fea <pca9635_set_all_led_pwm>:
     fea:	cf 93       	push	r28
     fec:	df 93       	push	r29
     fee:	d8 2f       	mov	r29, r24
     ff0:	80 e8       	ldi	r24, 0x80	; 128
     ff2:	eb da       	rcall	.-2602   	; 0x5ca <I2C_start>
     ff4:	82 e8       	ldi	r24, 0x82	; 130
     ff6:	0e db       	rcall	.-2532   	; 0x614 <I2C_write>
     ff8:	c0 e1       	ldi	r28, 0x10	; 16
     ffa:	8d 2f       	mov	r24, r29
     ffc:	0b db       	rcall	.-2538   	; 0x614 <I2C_write>
     ffe:	c1 50       	subi	r28, 0x01	; 1
    1000:	e1 f7       	brne	.-8      	; 0xffa <pca9635_set_all_led_pwm+0x10>
    1002:	25 db       	rcall	.-2486   	; 0x64e <I2C_stop>
    1004:	df 91       	pop	r29
    1006:	cf 91       	pop	r28
    1008:	08 95       	ret

0000100a <pca9635_set_sleep>:

/**
* Changes the oscillator mode between sleep (1) and active (0)
*/
uint8_t pca9635_set_sleep(uint8_t sleep)
{
    100a:	cf 93       	push	r28
    100c:	c8 2f       	mov	r28, r24
	I2C_start((0x40<<1)+I2C_READ);
    100e:	81 e8       	ldi	r24, 0x81	; 129
    1010:	dc da       	rcall	.-2632   	; 0x5ca <I2C_start>
	I2C_write(0x80); // autoincrement, mode 0,
    1012:	80 e8       	ldi	r24, 0x80	; 128
    1014:	ff da       	rcall	.-2562   	; 0x614 <I2C_write>
	// I2C_stop(); ???nodig?
	uint8_t data = I2C_read_ack();
    1016:	10 db       	rcall	.-2528   	; 0x638 <I2C_read_ack>
	
	if(sleep){		// set or unset bit 4
    1018:	cc 23       	and	r28, r28
    101a:	11 f0       	breq	.+4      	; 0x1020 <pca9635_set_sleep+0x16>
		data |= (1<<4);
    101c:	80 61       	ori	r24, 0x10	; 16
    101e:	01 c0       	rjmp	.+2      	; 0x1022 <pca9635_set_sleep+0x18>
	}else{
		data &= ~(1<<4);
    1020:	8f 7e       	andi	r24, 0xEF	; 239
	}
	
	uint8_t ack = I2C_write(data);  
    1022:	f8 da       	rcall	.-2576   	; 0x614 <I2C_write>
    1024:	c8 2f       	mov	r28, r24
	I2C_stop();
    1026:	13 db       	rcall	.-2522   	; 0x64e <I2C_stop>
	return ack;
}
    1028:	8c 2f       	mov	r24, r28
    102a:	cf 91       	pop	r28
    102c:	08 95       	ret

0000102e <_ZL15blockInterruptsv>:
	rf12_idle();
	else {
		rfmstate &= ~B11111000; // make sure everything is switched off (except bod, wkup, clk)
		rf12_xfer(rfmstate);
	}
	rxstate = TXIDLE;
    102e:	e8 98       	cbi	0x1d, 0	; 29
    1030:	08 95       	ret

00001032 <_ZL15allowInterruptsv>:
    1032:	e8 9a       	sbi	0x1d, 0	; 29
    1034:	08 95       	ret

00001036 <_ZL9rf12_byteh>:
    1036:	8e bd       	out	0x2e, r24	; 46
    1038:	0d b4       	in	r0, 0x2d	; 45
    103a:	07 fe       	sbrs	r0, 7
    103c:	fd cf       	rjmp	.-6      	; 0x1038 <_ZL9rf12_byteh+0x2>
    103e:	8e b5       	in	r24, 0x2e	; 46
    1040:	08 95       	ret

00001042 <_ZL9rf12_xferj>:
    1042:	1f 93       	push	r17
    1044:	cf 93       	push	r28
    1046:	df 93       	push	r29
    1048:	18 2f       	mov	r17, r24
    104a:	c9 2f       	mov	r28, r25
    104c:	f0 df       	rcall	.-32     	; 0x102e <_ZL15blockInterruptsv>
    104e:	2a 98       	cbi	0x05, 2	; 5
    1050:	8c 2f       	mov	r24, r28
    1052:	f1 df       	rcall	.-30     	; 0x1036 <_ZL9rf12_byteh>
    1054:	d8 2f       	mov	r29, r24
    1056:	80 e0       	ldi	r24, 0x00	; 0
    1058:	c8 2f       	mov	r28, r24
    105a:	81 2f       	mov	r24, r17
    105c:	ec df       	rcall	.-40     	; 0x1036 <_ZL9rf12_byteh>
    105e:	c8 2b       	or	r28, r24
    1060:	2a 9a       	sbi	0x05, 2	; 5
    1062:	e7 df       	rcall	.-50     	; 0x1032 <_ZL15allowInterruptsv>
    1064:	8c 2f       	mov	r24, r28
    1066:	9d 2f       	mov	r25, r29
    1068:	df 91       	pop	r29
    106a:	cf 91       	pop	r28
    106c:	1f 91       	pop	r17
    106e:	08 95       	ret

00001070 <_ZL9rf12_idlev>:
    1070:	80 91 89 01 	lds	r24, 0x0189
    1074:	90 91 8a 01 	lds	r25, 0x018A
    1078:	8f 70       	andi	r24, 0x0F	; 15
    107a:	90 93 8a 01 	sts	0x018A, r25
    107e:	80 93 89 01 	sts	0x0189, r24
    1082:	80 91 89 01 	lds	r24, 0x0189
    1086:	90 91 8a 01 	lds	r25, 0x018A
    108a:	88 60       	ori	r24, 0x08	; 8
    108c:	90 93 8a 01 	sts	0x018A, r25
    1090:	80 93 89 01 	sts	0x0189, r24
    1094:	80 91 89 01 	lds	r24, 0x0189
    1098:	90 91 8a 01 	lds	r25, 0x018A
    109c:	d2 cf       	rjmp	.-92     	; 0x1042 <_ZL9rf12_xferj>

0000109e <_Z12rf12_spiInitv>:
    109e:	84 b1       	in	r24, 0x04	; 4
    10a0:	8c 62       	ori	r24, 0x2C	; 44
    10a2:	84 b9       	out	0x04, r24	; 4
    10a4:	2a 9a       	sbi	0x05, 2	; 5
    10a6:	24 98       	cbi	0x04, 4	; 4
    10a8:	80 e5       	ldi	r24, 0x50	; 80
    10aa:	8c bd       	out	0x2c, r24	; 44
    10ac:	8d b5       	in	r24, 0x2d	; 45
    10ae:	81 60       	ori	r24, 0x01	; 1
    10b0:	8d bd       	out	0x2d, r24	; 45
    10b2:	52 98       	cbi	0x0a, 2	; 10
    10b4:	5a 9a       	sbi	0x0b, 2	; 11
    10b6:	08 95       	ret

000010b8 <_Z13rf12_recvDonev>:
    10b8:	80 91 8b 01 	lds	r24, 0x018B
    10bc:	87 30       	cpi	r24, 0x07	; 7
    10be:	09 f0       	breq	.+2      	; 0x10c2 <_Z13rf12_recvDonev+0xa>
    10c0:	51 c0       	rjmp	.+162    	; 0x1164 <_Z13rf12_recvDonev+0xac>
    10c2:	80 91 8e 01 	lds	r24, 0x018E
    10c6:	88 23       	and	r24, r24
    10c8:	a1 f0       	breq	.+40     	; 0x10f2 <_Z13rf12_recvDonev+0x3a>
    10ca:	90 91 8c 01 	lds	r25, 0x018C
    10ce:	98 17       	cp	r25, r24
    10d0:	28 f4       	brcc	.+10     	; 0x10dc <_Z13rf12_recvDonev+0x24>
    10d2:	80 91 8c 01 	lds	r24, 0x018C
    10d6:	87 34       	cpi	r24, 0x47	; 71
    10d8:	08 f4       	brcc	.+2      	; 0x10dc <_Z13rf12_recvDonev+0x24>
    10da:	44 c0       	rjmp	.+136    	; 0x1164 <_Z13rf12_recvDonev+0xac>
    10dc:	84 e0       	ldi	r24, 0x04	; 4
    10de:	80 93 8b 01 	sts	0x018B, r24
    10e2:	81 e0       	ldi	r24, 0x01	; 1
    10e4:	90 e0       	ldi	r25, 0x00	; 0
    10e6:	90 93 83 01 	sts	0x0183, r25
    10ea:	80 93 82 01 	sts	0x0182, r24
    10ee:	81 e0       	ldi	r24, 0x01	; 1
    10f0:	08 95       	ret
    10f2:	20 91 8c 01 	lds	r18, 0x018C
    10f6:	80 91 3d 01 	lds	r24, 0x013D
    10fa:	30 e0       	ldi	r19, 0x00	; 0
    10fc:	90 e0       	ldi	r25, 0x00	; 0
    10fe:	05 96       	adiw	r24, 0x05	; 5
    1100:	28 17       	cp	r18, r24
    1102:	39 07       	cpc	r19, r25
    1104:	24 f4       	brge	.+8      	; 0x110e <_Z13rf12_recvDonev+0x56>
    1106:	80 91 8c 01 	lds	r24, 0x018C
    110a:	87 34       	cpi	r24, 0x47	; 71
    110c:	58 f1       	brcs	.+86     	; 0x1164 <_Z13rf12_recvDonev+0xac>
    110e:	84 e0       	ldi	r24, 0x04	; 4
    1110:	80 93 8b 01 	sts	0x018B, r24
    1114:	80 91 3d 01 	lds	r24, 0x013D
    1118:	83 34       	cpi	r24, 0x43	; 67
    111a:	30 f0       	brcs	.+12     	; 0x1128 <_Z13rf12_recvDonev+0x70>
    111c:	81 e0       	ldi	r24, 0x01	; 1
    111e:	90 e0       	ldi	r25, 0x00	; 0
    1120:	90 93 83 01 	sts	0x0183, r25
    1124:	80 93 82 01 	sts	0x0182, r24
    1128:	80 91 3c 01 	lds	r24, 0x013C
    112c:	86 ff       	sbrs	r24, 6
    112e:	0b c0       	rjmp	.+22     	; 0x1146 <_Z13rf12_recvDonev+0x8e>
    1130:	80 91 8f 01 	lds	r24, 0x018F
    1134:	98 2f       	mov	r25, r24
    1136:	9f 71       	andi	r25, 0x1F	; 31
    1138:	9f 31       	cpi	r25, 0x1F	; 31
    113a:	29 f0       	breq	.+10     	; 0x1146 <_Z13rf12_recvDonev+0x8e>
    113c:	90 91 3c 01 	lds	r25, 0x013C
    1140:	89 27       	eor	r24, r25
    1142:	8f 71       	andi	r24, 0x1F	; 31
    1144:	79 f4       	brne	.+30     	; 0x1164 <_Z13rf12_recvDonev+0xac>
    1146:	80 91 82 01 	lds	r24, 0x0182
    114a:	90 91 83 01 	lds	r25, 0x0183
    114e:	89 2b       	or	r24, r25
    1150:	09 f0       	breq	.+2      	; 0x1154 <_Z13rf12_recvDonev+0x9c>
    1152:	55 c0       	rjmp	.+170    	; 0x11fe <_Z13rf12_recvDonev+0x146>
    1154:	e0 91 35 01 	lds	r30, 0x0135
    1158:	f0 91 36 01 	lds	r31, 0x0136
    115c:	30 97       	sbiw	r30, 0x00	; 0
    115e:	09 f0       	breq	.+2      	; 0x1162 <_Z13rf12_recvDonev+0xaa>
    1160:	4a c0       	rjmp	.+148    	; 0x11f6 <_Z13rf12_recvDonev+0x13e>
    1162:	4d c0       	rjmp	.+154    	; 0x11fe <_Z13rf12_recvDonev+0x146>
    1164:	80 91 8b 01 	lds	r24, 0x018B
    1168:	84 30       	cpi	r24, 0x04	; 4
    116a:	09 f0       	breq	.+2      	; 0x116e <_Z13rf12_recvDonev+0xb6>
    116c:	42 c0       	rjmp	.+132    	; 0x11f2 <_Z13rf12_recvDonev+0x13a>
    116e:	10 92 3d 01 	sts	0x013D, r1
    1172:	10 92 8c 01 	sts	0x018C, r1
    1176:	8f ef       	ldi	r24, 0xFF	; 255
    1178:	9f ef       	ldi	r25, 0xFF	; 255
    117a:	90 93 83 01 	sts	0x0183, r25
    117e:	80 93 82 01 	sts	0x0182, r24
    1182:	20 91 8d 01 	lds	r18, 0x018D
    1186:	22 23       	and	r18, r18
    1188:	d9 f0       	breq	.+54     	; 0x11c0 <_Z13rf12_recvDonev+0x108>
    118a:	82 27       	eor	r24, r18
    118c:	28 2f       	mov	r18, r24
    118e:	22 95       	swap	r18
    1190:	28 27       	eor	r18, r24
    1192:	02 2e       	mov	r0, r18
    1194:	26 95       	lsr	r18
    1196:	26 95       	lsr	r18
    1198:	20 25       	eor	r18, r0
    119a:	02 2e       	mov	r0, r18
    119c:	26 95       	lsr	r18
    119e:	20 25       	eor	r18, r0
    11a0:	27 70       	andi	r18, 0x07	; 7
    11a2:	08 2e       	mov	r0, r24
    11a4:	89 2f       	mov	r24, r25
    11a6:	26 95       	lsr	r18
    11a8:	07 94       	ror	r0
    11aa:	27 95       	ror	r18
    11ac:	90 2d       	mov	r25, r0
    11ae:	82 27       	eor	r24, r18
    11b0:	06 94       	lsr	r0
    11b2:	27 95       	ror	r18
    11b4:	90 25       	eor	r25, r0
    11b6:	82 27       	eor	r24, r18
    11b8:	90 93 83 01 	sts	0x0183, r25
    11bc:	80 93 82 01 	sts	0x0182, r24
    11c0:	87 e0       	ldi	r24, 0x07	; 7
    11c2:	80 93 8b 01 	sts	0x018B, r24
    11c6:	81 e0       	ldi	r24, 0x01	; 1
    11c8:	80 93 85 01 	sts	0x0185, r24
    11cc:	83 ea       	ldi	r24, 0xA3	; 163
    11ce:	94 e9       	ldi	r25, 0x94	; 148
    11d0:	38 df       	rcall	.-400    	; 0x1042 <_ZL9rf12_xferj>
    11d2:	80 91 89 01 	lds	r24, 0x0189
    11d6:	90 91 8a 01 	lds	r25, 0x018A
    11da:	88 6d       	ori	r24, 0xD8	; 216
    11dc:	90 93 8a 01 	sts	0x018A, r25
    11e0:	80 93 89 01 	sts	0x0189, r24
    11e4:	80 91 89 01 	lds	r24, 0x0189
    11e8:	90 91 8a 01 	lds	r25, 0x018A
    11ec:	2a df       	rcall	.-428    	; 0x1042 <_ZL9rf12_xferj>
    11ee:	80 e0       	ldi	r24, 0x00	; 0
    11f0:	08 95       	ret
    11f2:	80 e0       	ldi	r24, 0x00	; 0
    11f4:	08 95       	ret
    11f6:	80 e0       	ldi	r24, 0x00	; 0
    11f8:	09 95       	icall
    11fa:	81 e0       	ldi	r24, 0x01	; 1
    11fc:	08 95       	ret
    11fe:	8f ef       	ldi	r24, 0xFF	; 255
    1200:	9f ef       	ldi	r25, 0xFF	; 255
    1202:	dc 01       	movw	r26, r24
    1204:	80 93 37 01 	sts	0x0137, r24
    1208:	90 93 38 01 	sts	0x0138, r25
    120c:	a0 93 39 01 	sts	0x0139, r26
    1210:	b0 93 3a 01 	sts	0x013A, r27
    1214:	81 e0       	ldi	r24, 0x01	; 1
    1216:	08 95       	ret

00001218 <_Z15rf12_setBitrateh>:
    1218:	cf 92       	push	r12
    121a:	df 92       	push	r13
    121c:	ef 92       	push	r14
    121e:	ff 92       	push	r15
    1220:	0f 93       	push	r16
    1222:	1f 93       	push	r17
    1224:	cf 93       	push	r28
    1226:	c8 2f       	mov	r28, r24
    1228:	08 2f       	mov	r16, r24
    122a:	10 e0       	ldi	r17, 0x00	; 0
    122c:	c8 01       	movw	r24, r16
    122e:	96 6c       	ori	r25, 0xC6	; 198
    1230:	08 df       	rcall	.-496    	; 0x1042 <_ZL9rf12_xferj>
    1232:	cf 77       	andi	r28, 0x7F	; 127
    1234:	2c 2f       	mov	r18, r28
    1236:	30 e0       	ldi	r19, 0x00	; 0
    1238:	2f 5f       	subi	r18, 0xFF	; 255
    123a:	3f 4f       	sbci	r19, 0xFF	; 255
    123c:	44 27       	eor	r20, r20
    123e:	37 fd       	sbrc	r19, 7
    1240:	40 95       	com	r20
    1242:	54 2f       	mov	r21, r20
    1244:	6b ef       	ldi	r22, 0xFB	; 251
    1246:	72 e4       	ldi	r23, 0x42	; 66
    1248:	85 e0       	ldi	r24, 0x05	; 5
    124a:	90 e0       	ldi	r25, 0x00	; 0
    124c:	db d3       	rcall	.+1974   	; 0x1a04 <__udivmodsi4>
    124e:	69 01       	movw	r12, r18
    1250:	7a 01       	movw	r14, r20
    1252:	c8 01       	movw	r24, r16
    1254:	88 0f       	add	r24, r24
    1256:	89 2f       	mov	r24, r25
    1258:	88 1f       	adc	r24, r24
    125a:	99 0b       	sbc	r25, r25
    125c:	8c 01       	movw	r16, r24
    125e:	00 0f       	add	r16, r16
    1260:	11 1f       	adc	r17, r17
    1262:	00 0f       	add	r16, r16
    1264:	11 1f       	adc	r17, r17
    1266:	00 0f       	add	r16, r16
    1268:	11 1f       	adc	r17, r17
    126a:	08 1b       	sub	r16, r24
    126c:	19 0b       	sbc	r17, r25
    126e:	0f 5f       	subi	r16, 0xFF	; 255
    1270:	1f 4f       	sbci	r17, 0xFF	; 255
    1272:	98 01       	movw	r18, r16
    1274:	44 27       	eor	r20, r20
    1276:	37 fd       	sbrc	r19, 7
    1278:	40 95       	com	r20
    127a:	54 2f       	mov	r21, r20
    127c:	c7 01       	movw	r24, r14
    127e:	b6 01       	movw	r22, r12
    1280:	c1 d3       	rcall	.+1922   	; 0x1a04 <__udivmodsi4>
    1282:	da 01       	movw	r26, r20
    1284:	c9 01       	movw	r24, r18
    1286:	68 94       	set
    1288:	12 f8       	bld	r1, 2
    128a:	b6 95       	lsr	r27
    128c:	a7 95       	ror	r26
    128e:	97 95       	ror	r25
    1290:	87 95       	ror	r24
    1292:	16 94       	lsr	r1
    1294:	d1 f7       	brne	.-12     	; 0x128a <_Z15rf12_setBitrateh+0x72>
    1296:	bc 01       	movw	r22, r24
    1298:	cd 01       	movw	r24, r26
    129a:	6d 57       	subi	r22, 0x7D	; 125
    129c:	7c 4f       	sbci	r23, 0xFC	; 252
    129e:	8f 4f       	sbci	r24, 0xFF	; 255
    12a0:	9f 4f       	sbci	r25, 0xFF	; 255
    12a2:	24 e8       	ldi	r18, 0x84	; 132
    12a4:	33 e0       	ldi	r19, 0x03	; 3
    12a6:	40 e0       	ldi	r20, 0x00	; 0
    12a8:	50 e0       	ldi	r21, 0x00	; 0
    12aa:	ac d3       	rcall	.+1880   	; 0x1a04 <__udivmodsi4>
    12ac:	20 93 84 01 	sts	0x0184, r18
    12b0:	cf 91       	pop	r28
    12b2:	1f 91       	pop	r17
    12b4:	0f 91       	pop	r16
    12b6:	ff 90       	pop	r15
    12b8:	ef 90       	pop	r14
    12ba:	df 90       	pop	r13
    12bc:	cf 90       	pop	r12
    12be:	08 95       	ret

000012c0 <_Z19rf12_setFixedLengthh>:
    12c0:	81 11       	cpse	r24, r1
    12c2:	03 c0       	rjmp	.+6      	; 0x12ca <_Z19rf12_setFixedLengthh+0xa>
    12c4:	10 92 8e 01 	sts	0x018E, r1
    12c8:	08 95       	ret
    12ca:	8f 5f       	subi	r24, 0xFF	; 255
    12cc:	80 93 8e 01 	sts	0x018E, r24
    12d0:	08 95       	ret

000012d2 <_Z14rf12_sendStarth>:
    12d2:	86 fd       	sbrc	r24, 6
    12d4:	05 c0       	rjmp	.+10     	; 0x12e0 <_Z14rf12_sendStarth+0xe>
    12d6:	80 7e       	andi	r24, 0xE0	; 224
    12d8:	90 91 8f 01 	lds	r25, 0x018F
    12dc:	9f 71       	andi	r25, 0x1F	; 31
    12de:	89 0f       	add	r24, r25
    12e0:	80 93 3c 01 	sts	0x013C, r24
    12e4:	e0 91 35 01 	lds	r30, 0x0135
    12e8:	f0 91 36 01 	lds	r31, 0x0136
    12ec:	30 97       	sbiw	r30, 0x00	; 0
    12ee:	11 f0       	breq	.+4      	; 0x12f4 <_Z14rf12_sendStarth+0x22>
    12f0:	81 e0       	ldi	r24, 0x01	; 1
    12f2:	09 95       	icall
    12f4:	8f ef       	ldi	r24, 0xFF	; 255
    12f6:	9f ef       	ldi	r25, 0xFF	; 255
    12f8:	90 93 83 01 	sts	0x0183, r25
    12fc:	80 93 82 01 	sts	0x0182, r24
    1300:	80 91 82 01 	lds	r24, 0x0182
    1304:	90 91 83 01 	lds	r25, 0x0183
    1308:	20 91 8d 01 	lds	r18, 0x018D
    130c:	82 27       	eor	r24, r18
    130e:	28 2f       	mov	r18, r24
    1310:	22 95       	swap	r18
    1312:	28 27       	eor	r18, r24
    1314:	02 2e       	mov	r0, r18
    1316:	26 95       	lsr	r18
    1318:	26 95       	lsr	r18
    131a:	20 25       	eor	r18, r0
    131c:	02 2e       	mov	r0, r18
    131e:	26 95       	lsr	r18
    1320:	20 25       	eor	r18, r0
    1322:	27 70       	andi	r18, 0x07	; 7
    1324:	08 2e       	mov	r0, r24
    1326:	89 2f       	mov	r24, r25
    1328:	26 95       	lsr	r18
    132a:	07 94       	ror	r0
    132c:	27 95       	ror	r18
    132e:	90 2d       	mov	r25, r0
    1330:	82 27       	eor	r24, r18
    1332:	06 94       	lsr	r0
    1334:	27 95       	ror	r18
    1336:	90 25       	eor	r25, r0
    1338:	82 27       	eor	r24, r18
    133a:	90 93 83 01 	sts	0x0183, r25
    133e:	80 93 82 01 	sts	0x0182, r24
    1342:	88 e0       	ldi	r24, 0x08	; 8
    1344:	80 93 8b 01 	sts	0x018B, r24
    1348:	80 91 89 01 	lds	r24, 0x0189
    134c:	90 91 8a 01 	lds	r25, 0x018A
    1350:	88 63       	ori	r24, 0x38	; 56
    1352:	90 93 8a 01 	sts	0x018A, r25
    1356:	80 93 89 01 	sts	0x0189, r24
    135a:	80 91 89 01 	lds	r24, 0x0189
    135e:	90 91 8a 01 	lds	r25, 0x018A
    1362:	6f ce       	rjmp	.-802    	; 0x1042 <_ZL9rf12_xferj>

00001364 <_Z14rf12_sendStarthPKvh>:
    1364:	cf 93       	push	r28
    1366:	c8 2f       	mov	r28, r24
    1368:	40 93 3d 01 	sts	0x013D, r20
    136c:	2e e3       	ldi	r18, 0x3E	; 62
    136e:	31 e0       	ldi	r19, 0x01	; 1
    1370:	50 e0       	ldi	r21, 0x00	; 0
    1372:	82 2f       	mov	r24, r18
    1374:	93 2f       	mov	r25, r19
    1376:	7c d3       	rcall	.+1784   	; 0x1a70 <memcpy>
    1378:	8c 2f       	mov	r24, r28
    137a:	ab df       	rcall	.-170    	; 0x12d2 <_Z14rf12_sendStarth>
    137c:	cf 91       	pop	r28
    137e:	08 95       	ret

00001380 <_Z13rf12_sendWaith>:
    1380:	44 e0       	ldi	r20, 0x04	; 4
    1382:	30 e0       	ldi	r19, 0x00	; 0
    1384:	5c e0       	ldi	r21, 0x0C	; 12
    1386:	16 c0       	rjmp	.+44     	; 0x13b4 <_Z13rf12_sendWaith+0x34>
    1388:	88 23       	and	r24, r24
    138a:	a1 f0       	breq	.+40     	; 0x13b4 <_Z13rf12_sendWaith+0x34>
    138c:	93 b7       	in	r25, 0x33	; 51
    138e:	91 7f       	andi	r25, 0xF1	; 241
    1390:	83 30       	cpi	r24, 0x03	; 3
    1392:	21 f0       	breq	.+8      	; 0x139c <_Z13rf12_sendWaith+0x1c>
    1394:	82 30       	cpi	r24, 0x02	; 2
    1396:	21 f4       	brne	.+8      	; 0x13a0 <_Z13rf12_sendWaith+0x20>
    1398:	25 2f       	mov	r18, r21
    139a:	03 c0       	rjmp	.+6      	; 0x13a2 <_Z13rf12_sendWaith+0x22>
    139c:	24 2f       	mov	r18, r20
    139e:	01 c0       	rjmp	.+2      	; 0x13a2 <_Z13rf12_sendWaith+0x22>
    13a0:	23 2f       	mov	r18, r19
    13a2:	92 2b       	or	r25, r18
    13a4:	93 bf       	out	0x33, r25	; 51
    13a6:	93 b7       	in	r25, 0x33	; 51
    13a8:	91 60       	ori	r25, 0x01	; 1
    13aa:	93 bf       	out	0x33, r25	; 51
    13ac:	88 95       	sleep
    13ae:	93 b7       	in	r25, 0x33	; 51
    13b0:	9e 7f       	andi	r25, 0xFE	; 254
    13b2:	93 bf       	out	0x33, r25	; 51
    13b4:	90 91 8b 01 	lds	r25, 0x018B
    13b8:	94 30       	cpi	r25, 0x04	; 4
    13ba:	31 f7       	brne	.-52     	; 0x1388 <_Z13rf12_sendWaith+0x8>
    13bc:	08 95       	ret

000013be <_Z21rf12_interruptcontrolv>:
    13be:	e8 9a       	sbi	0x1d, 0	; 29
    13c0:	08 95       	ret

000013c2 <_Z12rf12_restorehhh>:
    13c2:	cf 93       	push	r28
    13c4:	df 93       	push	r29
    13c6:	d6 2f       	mov	r29, r22
    13c8:	c4 2f       	mov	r28, r20
    13ca:	80 93 8f 01 	sts	0x018F, r24
    13ce:	40 93 8d 01 	sts	0x018D, r20
    13d2:	60 93 90 01 	sts	0x0190, r22
    13d6:	f3 df       	rcall	.-26     	; 0x13be <_Z21rf12_interruptcontrolv>
    13d8:	80 e0       	ldi	r24, 0x00	; 0
    13da:	72 df       	rcall	.-284    	; 0x12c0 <_Z19rf12_setFixedLengthh>
    13dc:	28 de       	rcall	.-944    	; 0x102e <_ZL15blockInterruptsv>
    13de:	25 e0       	ldi	r18, 0x05	; 5
    13e0:	32 e8       	ldi	r19, 0x82	; 130
    13e2:	30 93 8a 01 	sts	0x018A, r19
    13e6:	20 93 89 01 	sts	0x0189, r18
    13ea:	80 91 89 01 	lds	r24, 0x0189
    13ee:	90 91 8a 01 	lds	r25, 0x018A
    13f2:	27 de       	rcall	.-946    	; 0x1042 <_ZL9rf12_xferj>
    13f4:	20 e1       	ldi	r18, 0x10	; 16
    13f6:	d2 9f       	mul	r29, r18
    13f8:	c0 01       	movw	r24, r0
    13fa:	11 24       	eor	r1, r1
    13fc:	87 6c       	ori	r24, 0xC7	; 199
    13fe:	90 68       	ori	r25, 0x80	; 128
    1400:	20 de       	rcall	.-960    	; 0x1042 <_ZL9rf12_xferj>
    1402:	80 e4       	ldi	r24, 0x40	; 64
    1404:	96 ea       	ldi	r25, 0xA6	; 166
    1406:	1d de       	rcall	.-966    	; 0x1042 <_ZL9rf12_xferj>
    1408:	86 e0       	ldi	r24, 0x06	; 6
    140a:	06 df       	rcall	.-500    	; 0x1218 <_Z15rf12_setBitrateh>
    140c:	82 ea       	ldi	r24, 0xA2	; 162
    140e:	94 e9       	ldi	r25, 0x94	; 148
    1410:	18 de       	rcall	.-976    	; 0x1042 <_ZL9rf12_xferj>
    1412:	8c ea       	ldi	r24, 0xAC	; 172
    1414:	92 ec       	ldi	r25, 0xC2	; 194
    1416:	15 de       	rcall	.-982    	; 0x1042 <_ZL9rf12_xferj>
    1418:	cc 23       	and	r28, r28
    141a:	41 f0       	breq	.+16     	; 0x142c <_Z12rf12_restorehhh+0x6a>
    141c:	83 e8       	ldi	r24, 0x83	; 131
    141e:	9a ec       	ldi	r25, 0xCA	; 202
    1420:	10 de       	rcall	.-992    	; 0x1042 <_ZL9rf12_xferj>
    1422:	8c 2f       	mov	r24, r28
    1424:	90 e0       	ldi	r25, 0x00	; 0
    1426:	9e 6c       	ori	r25, 0xCE	; 206
    1428:	0c de       	rcall	.-1000   	; 0x1042 <_ZL9rf12_xferj>
    142a:	06 c0       	rjmp	.+12     	; 0x1438 <_Z12rf12_restorehhh+0x76>
    142c:	8b e8       	ldi	r24, 0x8B	; 139
    142e:	9a ec       	ldi	r25, 0xCA	; 202
    1430:	08 de       	rcall	.-1008   	; 0x1042 <_ZL9rf12_xferj>
    1432:	8d e2       	ldi	r24, 0x2D	; 45
    1434:	9e ec       	ldi	r25, 0xCE	; 206
    1436:	05 de       	rcall	.-1014   	; 0x1042 <_ZL9rf12_xferj>
    1438:	83 e8       	ldi	r24, 0x83	; 131
    143a:	94 ec       	ldi	r25, 0xC4	; 196
    143c:	02 de       	rcall	.-1020   	; 0x1042 <_ZL9rf12_xferj>
    143e:	80 e5       	ldi	r24, 0x50	; 80
    1440:	98 e9       	ldi	r25, 0x98	; 152
    1442:	ff dd       	rcall	.-1026   	; 0x1042 <_ZL9rf12_xferj>
    1444:	87 e7       	ldi	r24, 0x77	; 119
    1446:	9c ec       	ldi	r25, 0xCC	; 204
    1448:	fc dd       	rcall	.-1032   	; 0x1042 <_ZL9rf12_xferj>
    144a:	80 e0       	ldi	r24, 0x00	; 0
    144c:	90 ee       	ldi	r25, 0xE0	; 224
    144e:	f9 dd       	rcall	.-1038   	; 0x1042 <_ZL9rf12_xferj>
    1450:	80 e0       	ldi	r24, 0x00	; 0
    1452:	98 ec       	ldi	r25, 0xC8	; 200
    1454:	f6 dd       	rcall	.-1044   	; 0x1042 <_ZL9rf12_xferj>
    1456:	89 e4       	ldi	r24, 0x49	; 73
    1458:	90 ec       	ldi	r25, 0xC0	; 192
    145a:	f3 dd       	rcall	.-1050   	; 0x1042 <_ZL9rf12_xferj>
    145c:	84 e0       	ldi	r24, 0x04	; 4
    145e:	80 93 8b 01 	sts	0x018B, r24
    1462:	e7 dd       	rcall	.-1074   	; 0x1032 <_ZL15allowInterruptsv>
    1464:	df 91       	pop	r29
    1466:	cf 91       	pop	r28
    1468:	08 95       	ret

0000146a <_Z15rf12_initializehhh>:
    146a:	1f 93       	push	r17
    146c:	cf 93       	push	r28
    146e:	df 93       	push	r29
    1470:	c8 2f       	mov	r28, r24
    1472:	d6 2f       	mov	r29, r22
    1474:	14 2f       	mov	r17, r20
    1476:	80 93 8f 01 	sts	0x018F, r24
    147a:	40 93 8d 01 	sts	0x018D, r20
    147e:	60 93 90 01 	sts	0x0190, r22
    1482:	0d de       	rcall	.-998    	; 0x109e <_Z12rf12_spiInitv>
    1484:	9c df       	rcall	.-200    	; 0x13be <_Z21rf12_interruptcontrolv>
    1486:	82 e8       	ldi	r24, 0x82	; 130
    1488:	9a ec       	ldi	r25, 0xCA	; 202
    148a:	db dd       	rcall	.-1098   	; 0x1042 <_ZL9rf12_xferj>
    148c:	80 e0       	ldi	r24, 0x00	; 0
    148e:	9e ef       	ldi	r25, 0xFE	; 254
    1490:	d8 dd       	rcall	.-1104   	; 0x1042 <_ZL9rf12_xferj>
    1492:	85 e0       	ldi	r24, 0x05	; 5
    1494:	80 93 8b 01 	sts	0x018B, r24
    1498:	83 b7       	in	r24, 0x33	; 51
    149a:	81 7f       	andi	r24, 0xF1	; 241
    149c:	83 bf       	out	0x33, r24	; 51
    149e:	80 91 8b 01 	lds	r24, 0x018B
    14a2:	85 30       	cpi	r24, 0x05	; 5
    14a4:	59 f4       	brne	.+22     	; 0x14bc <_Z15rf12_initializehhh+0x52>
    14a6:	93 b7       	in	r25, 0x33	; 51
    14a8:	91 60       	ori	r25, 0x01	; 1
    14aa:	93 bf       	out	0x33, r25	; 51
    14ac:	88 95       	sleep
    14ae:	93 b7       	in	r25, 0x33	; 51
    14b0:	9e 7f       	andi	r25, 0xFE	; 254
    14b2:	93 bf       	out	0x33, r25	; 51
    14b4:	90 91 8b 01 	lds	r25, 0x018B
    14b8:	95 30       	cpi	r25, 0x05	; 5
    14ba:	a9 f3       	breq	.-22     	; 0x14a6 <_Z15rf12_initializehhh+0x3c>
    14bc:	41 2f       	mov	r20, r17
    14be:	6d 2f       	mov	r22, r29
    14c0:	8c 2f       	mov	r24, r28
    14c2:	7f df       	rcall	.-258    	; 0x13c2 <_Z12rf12_restorehhh>
    14c4:	80 91 8f 01 	lds	r24, 0x018F
    14c8:	df 91       	pop	r29
    14ca:	cf 91       	pop	r28
    14cc:	1f 91       	pop	r17
    14ce:	08 95       	ret

000014d0 <_Z16rf12_setWatchdogm>:
/// interrupt in the RFM12 module. Use rf12_wakeup() to check if the wakeup-interrupt
/// fired. This allows very deep sleep states (timer off) while still being able to wakeup
/// because of the external interrupt. The RFM12b wakeup-timer only needs about 1.5A.
/// Don't expect an accurate timing. It's about 10% off. Only one timer is supported.
/// @param m Number of milliseconds
void rf12_setWatchdog (unsigned long m) {
    14d0:	cf 92       	push	r12
    14d2:	df 92       	push	r13
    14d4:	ef 92       	push	r14
    14d6:	ff 92       	push	r15
    14d8:	cf 93       	push	r28
    14da:	6b 01       	movw	r12, r22
    14dc:	7c 01       	movw	r14, r24
	// calculate parameters for RFM12 module
	// T_wakeup[ms] = m * 2^r
	char r=0;
	while (m > 255) {
    14de:	8f ef       	ldi	r24, 0xFF	; 255
    14e0:	c8 16       	cp	r12, r24
    14e2:	d1 04       	cpc	r13, r1
    14e4:	e1 04       	cpc	r14, r1
    14e6:	f1 04       	cpc	r15, r1
    14e8:	79 f0       	breq	.+30     	; 0x1508 <_Z16rf12_setWatchdogm+0x38>
    14ea:	70 f0       	brcs	.+28     	; 0x1508 <_Z16rf12_setWatchdogm+0x38>
/// Don't expect an accurate timing. It's about 10% off. Only one timer is supported.
/// @param m Number of milliseconds
void rf12_setWatchdog (unsigned long m) {
	// calculate parameters for RFM12 module
	// T_wakeup[ms] = m * 2^r
	char r=0;
    14ec:	c0 e0       	ldi	r28, 0x00	; 0
	while (m > 255) {
		r  += 1;
    14ee:	cf 5f       	subi	r28, 0xFF	; 255
		m >>= 1;
    14f0:	f6 94       	lsr	r15
    14f2:	e7 94       	ror	r14
    14f4:	d7 94       	ror	r13
    14f6:	c7 94       	ror	r12
/// @param m Number of milliseconds
void rf12_setWatchdog (unsigned long m) {
	// calculate parameters for RFM12 module
	// T_wakeup[ms] = m * 2^r
	char r=0;
	while (m > 255) {
    14f8:	8f ef       	ldi	r24, 0xFF	; 255
    14fa:	c8 16       	cp	r12, r24
    14fc:	d1 04       	cpc	r13, r1
    14fe:	e1 04       	cpc	r14, r1
    1500:	f1 04       	cpc	r15, r1
    1502:	09 f0       	breq	.+2      	; 0x1506 <_Z16rf12_setWatchdogm+0x36>
    1504:	a0 f7       	brcc	.-24     	; 0x14ee <_Z16rf12_setWatchdogm+0x1e>
    1506:	01 c0       	rjmp	.+2      	; 0x150a <_Z16rf12_setWatchdogm+0x3a>
/// Don't expect an accurate timing. It's about 10% off. Only one timer is supported.
/// @param m Number of milliseconds
void rf12_setWatchdog (unsigned long m) {
	// calculate parameters for RFM12 module
	// T_wakeup[ms] = m * 2^r
	char r=0;
    1508:	c0 e0       	ldi	r28, 0x00	; 0
		m >>= 1;
	}
	
	// Disable old wakeup-timer if enabled
//	if (bitRead(rfmstate,1)) {
	if ((rfmstate>>1)&0x01){
    150a:	80 91 89 01 	lds	r24, 0x0189
    150e:	90 91 8a 01 	lds	r25, 0x018A
    1512:	81 ff       	sbrs	r24, 1
    1514:	0e c0       	rjmp	.+28     	; 0x1532 <_Z16rf12_setWatchdogm+0x62>
		//bitClear(rfmstate,1);
		rfmstate &= ~(1 << 1);
    1516:	80 91 89 01 	lds	r24, 0x0189
    151a:	90 91 8a 01 	lds	r25, 0x018A
    151e:	8d 7f       	andi	r24, 0xFD	; 253
    1520:	90 93 8a 01 	sts	0x018A, r25
    1524:	80 93 89 01 	sts	0x0189, r24
		rf12_xfer(rfmstate);
    1528:	80 91 89 01 	lds	r24, 0x0189
    152c:	90 91 8a 01 	lds	r25, 0x018A
    1530:	88 dd       	rcall	.-1264   	; 0x1042 <_ZL9rf12_xferj>
	}
	
	// enable wakeup call if we have to
	if (m>0) {
    1532:	c1 14       	cp	r12, r1
    1534:	d1 04       	cpc	r13, r1
    1536:	e1 04       	cpc	r14, r1
    1538:	f1 04       	cpc	r15, r1
    153a:	b1 f0       	breq	.+44     	; 0x1568 <_Z16rf12_setWatchdogm+0x98>
		// write time to wakeup-register
		rf12_xfer(RF_WAKEUP_TIMER | (r<<8) | m);
    153c:	3c 2f       	mov	r19, r28
    153e:	20 e0       	ldi	r18, 0x00	; 0
    1540:	d7 01       	movw	r26, r14
    1542:	c6 01       	movw	r24, r12
    1544:	90 6e       	ori	r25, 0xE0	; 224
    1546:	82 2b       	or	r24, r18
    1548:	93 2b       	or	r25, r19
    154a:	7b dd       	rcall	.-1290   	; 0x1042 <_ZL9rf12_xferj>
		// enable wakeup
		//bitSet(rfmstate,1);
		rfmstate |= (1 << 1);
    154c:	80 91 89 01 	lds	r24, 0x0189
    1550:	90 91 8a 01 	lds	r25, 0x018A
    1554:	82 60       	ori	r24, 0x02	; 2
    1556:	90 93 8a 01 	sts	0x018A, r25
    155a:	80 93 89 01 	sts	0x0189, r24
		rf12_xfer(rfmstate);
    155e:	80 91 89 01 	lds	r24, 0x0189
    1562:	90 91 8a 01 	lds	r25, 0x018A
    1566:	6d dd       	rcall	.-1318   	; 0x1042 <_ZL9rf12_xferj>
	}
}
    1568:	cf 91       	pop	r28
    156a:	ff 90       	pop	r15
    156c:	ef 90       	pop	r14
    156e:	df 90       	pop	r13
    1570:	cf 90       	pop	r12
    1572:	08 95       	ret

00001574 <__vector_1>:
	}

}


ISR(INT0_vect) {
    1574:	1f 92       	push	r1
    1576:	0f 92       	push	r0
    1578:	0f b6       	in	r0, 0x3f	; 63
    157a:	0f 92       	push	r0
    157c:	11 24       	eor	r1, r1
    157e:	1f 93       	push	r17
    1580:	2f 93       	push	r18
    1582:	3f 93       	push	r19
    1584:	4f 93       	push	r20
    1586:	5f 93       	push	r21
    1588:	6f 93       	push	r22
    158a:	7f 93       	push	r23
    158c:	8f 93       	push	r24
    158e:	9f 93       	push	r25
    1590:	af 93       	push	r26
    1592:	bf 93       	push	r27
    1594:	cf 93       	push	r28
    1596:	df 93       	push	r29
    1598:	ef 93       	push	r30
    159a:	ff 93       	push	r31
/// Requests RFM12 state from RF module and reads back a waiting data byte if there is
/// any.
/// One of two commands accessing SPI, so interrupts disabled in here
/// @param *data Pointer to  byte where to write the received data to (if any)
static uint16_t rf12_xferState (uint8_t *data) {
	blockInterrupts();
    159c:	48 dd       	rcall	.-1392   	; 0x102e <_ZL15blockInterruptsv>

	// writing can take place at full speed, even 8 MHz works
	//bitClear(SS_PORT, cs_pin);
	PORT_RFM_CS &= ~(1<<BIT_RFM_CS); //clear CS
    159e:	2a 98       	cbi	0x05, 2	; 5
	uint16_t res = rf12_byte(0x00) << 8;
    15a0:	80 e0       	ldi	r24, 0x00	; 0
    15a2:	49 dd       	rcall	.-1390   	; 0x1036 <_ZL9rf12_byteh>
    15a4:	d8 2f       	mov	r29, r24
    15a6:	80 e0       	ldi	r24, 0x00	; 0
    15a8:	c8 2f       	mov	r28, r24
	res |= rf12_byte(0x00);
    15aa:	45 dd       	rcall	.-1398   	; 0x1036 <_ZL9rf12_byteh>
    15ac:	c8 2b       	or	r28, r24
	
	if (res & RF_FIFO_BIT && rxstate == TXRECV) {
    15ae:	dd 23       	and	r29, r29
    15b0:	2c f4       	brge	.+10     	; 0x15bc <__vector_1+0x48>
    15b2:	80 91 8b 01 	lds	r24, 0x018B
    15b6:	87 30       	cpi	r24, 0x07	; 7
    15b8:	09 f4       	brne	.+2      	; 0x15bc <__vector_1+0x48>
    15ba:	11 c1       	rjmp	.+546    	; 0x17de <__vector_1+0x26a>
		#if F_CPU > 10000000
		SPCR &= ~(1 << SPR0); //    bitClear(SPCR, SPR0);
		#endif
	}
	
	PORT_RFM_CS |= (1 << BIT_RFM_CS); //  bitSet(SS_PORT, cs_pin);
    15bc:	2a 9a       	sbi	0x05, 2	; 5

	allowInterrupts();
    15be:	39 dd       	rcall	.-1422   	; 0x1032 <_ZL15allowInterruptsv>
/// @details
/// Handles a RFM12 interrupt depending on rxstate and the status reported by the RF
/// module.
static void rf12_interrupt() {
	uint8_t in;
	state = rf12_xferState(&in);
    15c0:	d0 93 88 01 	sts	0x0188, r29
    15c4:	c0 93 87 01 	sts	0x0187, r28

	// data received or byte needed for sending
	if (state & RF_FIFO_BIT) {
    15c8:	20 91 87 01 	lds	r18, 0x0187
    15cc:	30 91 88 01 	lds	r19, 0x0188
    15d0:	33 23       	and	r19, r19
    15d2:	0c f0       	brlt	.+2      	; 0x15d6 <__vector_1+0x62>
    15d4:	e3 c0       	rjmp	.+454    	; 0x179c <__vector_1+0x228>
		
		// RECEIVING - RECEIVING - RECEIVING!
		if (rxstate == TXRECV) {  // we are receiving
    15d6:	80 91 8b 01 	lds	r24, 0x018B
    15da:	87 30       	cpi	r24, 0x07	; 7
    15dc:	09 f0       	breq	.+2      	; 0x15e0 <__vector_1+0x6c>
    15de:	7a c0       	rjmp	.+244    	; 0x16d4 <__vector_1+0x160>

			if (rxfill == 0 && group != 0)
    15e0:	80 91 8c 01 	lds	r24, 0x018C
    15e4:	81 11       	cpse	r24, r1
    15e6:	04 c0       	rjmp	.+8      	; 0x15f0 <__vector_1+0x7c>
    15e8:	80 91 8d 01 	lds	r24, 0x018D
    15ec:	81 11       	cpse	r24, r1
    15ee:	01 c1       	rjmp	.+514    	; 0x17f2 <__vector_1+0x27e>
			rf12_buf[rxfill++] = group;

			rf12_buf[rxfill++] = in;
    15f0:	80 91 8c 01 	lds	r24, 0x018C
    15f4:	e8 2f       	mov	r30, r24
    15f6:	f0 e0       	ldi	r31, 0x00	; 0
    15f8:	e5 5c       	subi	r30, 0xC5	; 197
    15fa:	fe 4f       	sbci	r31, 0xFE	; 254
    15fc:	10 83       	st	Z, r17
    15fe:	8f 5f       	subi	r24, 0xFF	; 255
    1600:	80 93 8c 01 	sts	0x018C, r24
			rf12_crc = _crc16_update(rf12_crc, in);
    1604:	20 91 82 01 	lds	r18, 0x0182
    1608:	30 91 83 01 	lds	r19, 0x0183
		"eor %B0,__tmp_reg__" "\n\t"
		"eor %A0,%1"
		: "=r" (__ret), "=d" (__tmp)
		: "r" (__data), "0" (__crc)
		: "r0"
	);
    160c:	21 27       	eor	r18, r17
    160e:	12 2f       	mov	r17, r18
    1610:	12 95       	swap	r17
    1612:	12 27       	eor	r17, r18
    1614:	01 2e       	mov	r0, r17
    1616:	16 95       	lsr	r17
    1618:	16 95       	lsr	r17
    161a:	10 25       	eor	r17, r0
    161c:	01 2e       	mov	r0, r17
    161e:	16 95       	lsr	r17
    1620:	10 25       	eor	r17, r0
    1622:	17 70       	andi	r17, 0x07	; 7
    1624:	02 2e       	mov	r0, r18
    1626:	23 2f       	mov	r18, r19
    1628:	16 95       	lsr	r17
    162a:	07 94       	ror	r0
    162c:	17 95       	ror	r17
    162e:	30 2d       	mov	r19, r0
    1630:	21 27       	eor	r18, r17
    1632:	06 94       	lsr	r0
    1634:	17 95       	ror	r17
    1636:	30 25       	eor	r19, r0
    1638:	21 27       	eor	r18, r17
    163a:	30 93 83 01 	sts	0x0183, r19
    163e:	20 93 82 01 	sts	0x0182, r18

			// do drssi binary-tree search
			if ( drssi < 3 && ((rxfill-2)%drssi_bytes_per_decision)==0 ) {// not yet final value
    1642:	e0 91 85 01 	lds	r30, 0x0185
    1646:	e3 30       	cpi	r30, 0x03	; 3
    1648:	18 f5       	brcc	.+70     	; 0x1690 <__vector_1+0x11c>
    164a:	80 91 8c 01 	lds	r24, 0x018C
    164e:	90 e0       	ldi	r25, 0x00	; 0
    1650:	02 97       	sbiw	r24, 0x02	; 2
    1652:	60 91 84 01 	lds	r22, 0x0184
    1656:	70 e0       	ldi	r23, 0x00	; 0
    1658:	c2 d1       	rcall	.+900    	; 0x19de <__divmodhi4>
    165a:	89 2b       	or	r24, r25
    165c:	09 f4       	brne	.+2      	; 0x1660 <__vector_1+0xec>
    165e:	d4 c0       	rjmp	.+424    	; 0x1808 <__vector_1+0x294>
    1660:	17 c0       	rjmp	.+46     	; 0x1690 <__vector_1+0x11c>
				// top nibble when going up, bottom one when going down
				//drssi = bitRead(state,8)
				drssi = ((state>>8)&0x01)
				? (drssi_dec_tree[drssi] & B1111)
				: (drssi_dec_tree[drssi] >> 4);
    1662:	f0 e0       	ldi	r31, 0x00	; 0
			// do drssi binary-tree search
			if ( drssi < 3 && ((rxfill-2)%drssi_bytes_per_decision)==0 ) {// not yet final value
				// top nibble when going up, bottom one when going down
				//drssi = bitRead(state,8)
				drssi = ((state>>8)&0x01)
				? (drssi_dec_tree[drssi] & B1111)
    1664:	ea 5e       	subi	r30, 0xEA	; 234
    1666:	fe 4f       	sbci	r31, 0xFE	; 254
				: (drssi_dec_tree[drssi] >> 4);
    1668:	80 81       	ld	r24, Z
    166a:	8f 70       	andi	r24, 0x0F	; 15
    166c:	06 c0       	rjmp	.+12     	; 0x167a <__vector_1+0x106>
    166e:	f0 e0       	ldi	r31, 0x00	; 0
    1670:	ea 5e       	subi	r30, 0xEA	; 234
    1672:	fe 4f       	sbci	r31, 0xFE	; 254
    1674:	80 81       	ld	r24, Z
    1676:	82 95       	swap	r24
    1678:	8f 70       	andi	r24, 0x0F	; 15
    167a:	80 93 85 01 	sts	0x0185, r24
				if ( drssi < 3 ) {     // not yet final destination, set new threshold
    167e:	83 30       	cpi	r24, 0x03	; 3
    1680:	38 f4       	brcc	.+14     	; 0x1690 <__vector_1+0x11c>
					rf12_xfer(RF_RECV_CONTROL | drssi*2+1);
    1682:	90 e0       	ldi	r25, 0x00	; 0
    1684:	88 0f       	add	r24, r24
    1686:	99 1f       	adc	r25, r25
    1688:	01 96       	adiw	r24, 0x01	; 1
    168a:	80 6a       	ori	r24, 0xA0	; 160
    168c:	94 69       	ori	r25, 0x94	; 148
    168e:	d9 dc       	rcall	.-1614   	; 0x1042 <_ZL9rf12_xferj>
				}
			}

			// check if we got all the bytes (or maximum packet length was reached)
			if (fixedLength) {
    1690:	80 91 8e 01 	lds	r24, 0x018E
    1694:	88 23       	and	r24, r24
    1696:	59 f0       	breq	.+22     	; 0x16ae <__vector_1+0x13a>
				if (rxfill >= fixedLength || rxfill >= RF_MAX) {
    1698:	90 91 8c 01 	lds	r25, 0x018C
    169c:	98 17       	cp	r25, r24
    169e:	28 f4       	brcc	.+10     	; 0x16aa <__vector_1+0x136>
    16a0:	80 91 8c 01 	lds	r24, 0x018C
    16a4:	87 34       	cpi	r24, 0x47	; 71
    16a6:	08 f4       	brcc	.+2      	; 0x16aa <__vector_1+0x136>
    16a8:	79 c0       	rjmp	.+242    	; 0x179c <__vector_1+0x228>
					rf12_idle();
    16aa:	e2 dc       	rcall	.-1596   	; 0x1070 <_ZL9rf12_idlev>
    16ac:	77 c0       	rjmp	.+238    	; 0x179c <__vector_1+0x228>
				}
			} else if (rxfill >= rf12_len + 5 || rxfill >= RF_MAX) {
    16ae:	20 91 8c 01 	lds	r18, 0x018C
    16b2:	80 91 3d 01 	lds	r24, 0x013D
    16b6:	30 e0       	ldi	r19, 0x00	; 0
    16b8:	90 e0       	ldi	r25, 0x00	; 0
    16ba:	05 96       	adiw	r24, 0x05	; 5
    16bc:	28 17       	cp	r18, r24
    16be:	39 07       	cpc	r19, r25
    16c0:	2c f4       	brge	.+10     	; 0x16cc <__vector_1+0x158>
    16c2:	80 91 8c 01 	lds	r24, 0x018C
    16c6:	87 34       	cpi	r24, 0x47	; 71
    16c8:	08 f4       	brcc	.+2      	; 0x16cc <__vector_1+0x158>
    16ca:	68 c0       	rjmp	.+208    	; 0x179c <__vector_1+0x228>
				PORTB |= _BV(0); // pb0 aan
    16cc:	28 9a       	sbi	0x05, 0	; 5
				rf12_idle();
    16ce:	d0 dc       	rcall	.-1632   	; 0x1070 <_ZL9rf12_idlev>
				PORTB &= ~_BV(0); // pb0 uit
    16d0:	28 98       	cbi	0x05, 0	; 5
    16d2:	64 c0       	rjmp	.+200    	; 0x179c <__vector_1+0x228>
			
			// SENDING - SENDING - SENDING!
			} else {                  // we are sending
			uint8_t out;

			if (rxstate < 0) {
    16d4:	80 91 8b 01 	lds	r24, 0x018B
    16d8:	88 23       	and	r24, r24
    16da:	0c f0       	brlt	.+2      	; 0x16de <__vector_1+0x16a>
    16dc:	2f c0       	rjmp	.+94     	; 0x173c <__vector_1+0x1c8>
				uint8_t pos = 3 + rf12_len + rxstate++;
    16de:	e0 91 3d 01 	lds	r30, 0x013D
    16e2:	80 91 8b 01 	lds	r24, 0x018B
    16e6:	98 2f       	mov	r25, r24
    16e8:	9f 5f       	subi	r25, 0xFF	; 255
    16ea:	90 93 8b 01 	sts	0x018B, r25
    16ee:	ed 5f       	subi	r30, 0xFD	; 253
    16f0:	8e 0f       	add	r24, r30
				out = rf12_buf[pos];
    16f2:	e8 2f       	mov	r30, r24
    16f4:	f0 e0       	ldi	r31, 0x00	; 0
    16f6:	e5 5c       	subi	r30, 0xC5	; 197
    16f8:	fe 4f       	sbci	r31, 0xFE	; 254
    16fa:	80 81       	ld	r24, Z
				rf12_crc = _crc16_update(rf12_crc, out);
    16fc:	20 91 82 01 	lds	r18, 0x0182
    1700:	30 91 83 01 	lds	r19, 0x0183
    1704:	28 27       	eor	r18, r24
    1706:	92 2f       	mov	r25, r18
    1708:	92 95       	swap	r25
    170a:	92 27       	eor	r25, r18
    170c:	09 2e       	mov	r0, r25
    170e:	96 95       	lsr	r25
    1710:	96 95       	lsr	r25
    1712:	90 25       	eor	r25, r0
    1714:	09 2e       	mov	r0, r25
    1716:	96 95       	lsr	r25
    1718:	90 25       	eor	r25, r0
    171a:	97 70       	andi	r25, 0x07	; 7
    171c:	02 2e       	mov	r0, r18
    171e:	23 2f       	mov	r18, r19
    1720:	96 95       	lsr	r25
    1722:	07 94       	ror	r0
    1724:	97 95       	ror	r25
    1726:	30 2d       	mov	r19, r0
    1728:	29 27       	eor	r18, r25
    172a:	06 94       	lsr	r0
    172c:	97 95       	ror	r25
    172e:	30 25       	eor	r19, r0
    1730:	29 27       	eor	r18, r25
    1732:	30 93 83 01 	sts	0x0183, r19
    1736:	20 93 82 01 	sts	0x0182, r18
    173a:	2d c0       	rjmp	.+90     	; 0x1796 <__vector_1+0x222>
			} else
			switch (rxstate++) {
    173c:	80 91 8b 01 	lds	r24, 0x018B
    1740:	98 2f       	mov	r25, r24
    1742:	9f 5f       	subi	r25, 0xFF	; 255
    1744:	90 93 8b 01 	sts	0x018B, r25
    1748:	83 30       	cpi	r24, 0x03	; 3
    174a:	09 f1       	breq	.+66     	; 0x178e <__vector_1+0x21a>
    174c:	2c f4       	brge	.+10     	; 0x1758 <__vector_1+0x1e4>
    174e:	88 23       	and	r24, r24
    1750:	99 f0       	breq	.+38     	; 0x1778 <__vector_1+0x204>
    1752:	81 30       	cpi	r24, 0x01	; 1
    1754:	f9 f4       	brne	.+62     	; 0x1794 <__vector_1+0x220>
    1756:	15 c0       	rjmp	.+42     	; 0x1782 <__vector_1+0x20e>
    1758:	8b 30       	cpi	r24, 0x0B	; 11
    175a:	19 f0       	breq	.+6      	; 0x1762 <__vector_1+0x1ee>
    175c:	8c 30       	cpi	r24, 0x0C	; 12
    175e:	d1 f4       	brne	.+52     	; 0x1794 <__vector_1+0x220>
    1760:	02 c0       	rjmp	.+4      	; 0x1766 <__vector_1+0x1f2>
				case TXSYN1: out = 0x2D; break;
    1762:	8d e2       	ldi	r24, 0x2D	; 45
    1764:	18 c0       	rjmp	.+48     	; 0x1796 <__vector_1+0x222>
				case TXSYN2: out = group; rxstate = - (2 + rf12_len); break;
    1766:	80 91 8d 01 	lds	r24, 0x018D
    176a:	20 91 3d 01 	lds	r18, 0x013D
    176e:	9e ef       	ldi	r25, 0xFE	; 254
    1770:	92 1b       	sub	r25, r18
    1772:	90 93 8b 01 	sts	0x018B, r25
    1776:	0f c0       	rjmp	.+30     	; 0x1796 <__vector_1+0x222>
				case TXCRC1: out = rf12_crc; break;
    1778:	80 91 82 01 	lds	r24, 0x0182
    177c:	90 91 83 01 	lds	r25, 0x0183
    1780:	0a c0       	rjmp	.+20     	; 0x1796 <__vector_1+0x222>
				case TXCRC2: out = rf12_crc >> 8; break;
    1782:	80 91 82 01 	lds	r24, 0x0182
    1786:	90 91 83 01 	lds	r25, 0x0183
    178a:	89 2f       	mov	r24, r25
    178c:	04 c0       	rjmp	.+8      	; 0x1796 <__vector_1+0x222>
				case TXDONE: rf12_idle(); // fall through
    178e:	70 dc       	rcall	.-1824   	; 0x1070 <_ZL9rf12_idlev>
				default:     out = 0xAA;
    1790:	8a ea       	ldi	r24, 0xAA	; 170
    1792:	01 c0       	rjmp	.+2      	; 0x1796 <__vector_1+0x222>
    1794:	8a ea       	ldi	r24, 0xAA	; 170
			}

			rf12_xfer(RF_TXREG_WRITE | out);
    1796:	90 e0       	ldi	r25, 0x00	; 0
    1798:	98 6b       	ori	r25, 0xB8	; 184
    179a:	53 dc       	rcall	.-1882   	; 0x1042 <_ZL9rf12_xferj>
		}
	}
	
	// power-on reset
	if (state & RF_POR_BIT) {
    179c:	80 91 87 01 	lds	r24, 0x0187
    17a0:	90 91 88 01 	lds	r25, 0x0188
    17a4:	96 ff       	sbrs	r25, 6
    17a6:	03 c0       	rjmp	.+6      	; 0x17ae <__vector_1+0x23a>
		rxstate = POR_RECEIVED;
    17a8:	86 e0       	ldi	r24, 0x06	; 6
    17aa:	80 93 8b 01 	sts	0x018B, r24
	}

	// got wakeup call
	if (state & RF_WDG_BIT) {
    17ae:	80 91 87 01 	lds	r24, 0x0187
    17b2:	90 91 88 01 	lds	r25, 0x0188
    17b6:	94 ff       	sbrs	r25, 4
    17b8:	07 c0       	rjmp	.+14     	; 0x17c8 <__vector_1+0x254>
		rf12_setWatchdog(0);
    17ba:	60 e0       	ldi	r22, 0x00	; 0
    17bc:	70 e0       	ldi	r23, 0x00	; 0
    17be:	cb 01       	movw	r24, r22
    17c0:	87 de       	rcall	.-754    	; 0x14d0 <_Z16rf12_setWatchdogm>
		rf12_gotwakeup = 1;
    17c2:	81 e0       	ldi	r24, 0x01	; 1
    17c4:	80 93 86 01 	sts	0x0186, r24
	}
	
	// fifo overflow or buffer underrun - abort reception/sending
	if (state & RF_OVF_BIT) {
    17c8:	80 91 87 01 	lds	r24, 0x0187
    17cc:	90 91 88 01 	lds	r25, 0x0188
    17d0:	95 ff       	sbrs	r25, 5
    17d2:	21 c0       	rjmp	.+66     	; 0x1816 <__vector_1+0x2a2>
		rf12_idle();
    17d4:	4d dc       	rcall	.-1894   	; 0x1070 <_ZL9rf12_idlev>
		rxstate = TXIDLE;
    17d6:	84 e0       	ldi	r24, 0x04	; 4
    17d8:	80 93 8b 01 	sts	0x018B, r24
    17dc:	1c c0       	rjmp	.+56     	; 0x1816 <__vector_1+0x2a2>
	
	if (res & RF_FIFO_BIT && rxstate == TXRECV) {
		// slow down to under 2.5 MHz
		#if F_CPU > 10000000

		SPCR |= (1 << SPR0); //  bitSet(SPCR, SPR0);
    17de:	8c b5       	in	r24, 0x2c	; 44
    17e0:	81 60       	ori	r24, 0x01	; 1
    17e2:	8c bd       	out	0x2c, r24	; 44
		#endif
		
		*data = rf12_byte(0x00);
    17e4:	80 e0       	ldi	r24, 0x00	; 0
    17e6:	27 dc       	rcall	.-1970   	; 0x1036 <_ZL9rf12_byteh>
    17e8:	18 2f       	mov	r17, r24
		
		#if F_CPU > 10000000
		SPCR &= ~(1 << SPR0); //    bitClear(SPCR, SPR0);
    17ea:	8c b5       	in	r24, 0x2c	; 44
    17ec:	8e 7f       	andi	r24, 0xFE	; 254
    17ee:	8c bd       	out	0x2c, r24	; 44
    17f0:	e5 ce       	rjmp	.-566    	; 0x15bc <__vector_1+0x48>
		
		// RECEIVING - RECEIVING - RECEIVING!
		if (rxstate == TXRECV) {  // we are receiving

			if (rxfill == 0 && group != 0)
			rf12_buf[rxfill++] = group;
    17f2:	90 91 8c 01 	lds	r25, 0x018C
    17f6:	e9 2f       	mov	r30, r25
    17f8:	f0 e0       	ldi	r31, 0x00	; 0
    17fa:	e5 5c       	subi	r30, 0xC5	; 197
    17fc:	fe 4f       	sbci	r31, 0xFE	; 254
    17fe:	80 83       	st	Z, r24
    1800:	9f 5f       	subi	r25, 0xFF	; 255
    1802:	90 93 8c 01 	sts	0x018C, r25
    1806:	f4 ce       	rjmp	.-536    	; 0x15f0 <__vector_1+0x7c>
			if ( drssi < 3 && ((rxfill-2)%drssi_bytes_per_decision)==0 ) {// not yet final value
				// top nibble when going up, bottom one when going down
				//drssi = bitRead(state,8)
				drssi = ((state>>8)&0x01)
				? (drssi_dec_tree[drssi] & B1111)
				: (drssi_dec_tree[drssi] >> 4);
    1808:	80 91 87 01 	lds	r24, 0x0187
    180c:	90 91 88 01 	lds	r25, 0x0188
    1810:	90 fd       	sbrc	r25, 0
    1812:	27 cf       	rjmp	.-434    	; 0x1662 <__vector_1+0xee>
    1814:	2c cf       	rjmp	.-424    	; 0x166e <__vector_1+0xfa>
}


ISR(INT0_vect) {
		rf12_interrupt();
}
    1816:	ff 91       	pop	r31
    1818:	ef 91       	pop	r30
    181a:	df 91       	pop	r29
    181c:	cf 91       	pop	r28
    181e:	bf 91       	pop	r27
    1820:	af 91       	pop	r26
    1822:	9f 91       	pop	r25
    1824:	8f 91       	pop	r24
    1826:	7f 91       	pop	r23
    1828:	6f 91       	pop	r22
    182a:	5f 91       	pop	r21
    182c:	4f 91       	pop	r20
    182e:	3f 91       	pop	r19
    1830:	2f 91       	pop	r18
    1832:	1f 91       	pop	r17
    1834:	0f 90       	pop	r0
    1836:	0f be       	out	0x3f, r0	; 63
    1838:	0f 90       	pop	r0
    183a:	1f 90       	pop	r1
    183c:	18 95       	reti

0000183e <tone_init>:
#include <avr/io.h>

uint8_t _tAC_volume[] = { 200, 100, 67, 50, 40, 33, 29, 22, 11, 2 }; // Duty for linear volume counsigned long _tAC_time;ntrol.

void tone_init(){
		DDRB |= (1 << 1); // Set pin PB1 to OUTPUT
    183e:	21 9a       	sbi	0x04, 1	; 4
    1840:	08 95       	ret

00001842 <noTone>:


	void noTone() {
	//	uart0_puts("STOP");
	//	TIMSK1 &= ~_BV(OCIE1A);     // Remove the timer interrupt.
		 TCCR1B  &= ~(1<<0) | ~(1<<1) | ~(1<<2) ;        // No clock source (Timer/Counter stopped).
    1842:	e1 e8       	ldi	r30, 0x81	; 129
    1844:	f0 e0       	ldi	r31, 0x00	; 0
    1846:	80 81       	ld	r24, Z
    1848:	80 83       	st	Z, r24
		 TCCR1A  = 0x00;       // Set to defaults so PWM can work like normal (PWM, phase corrected, 8bit).
    184a:	10 92 80 00 	sts	0x0080, r1
		PORTB &= ~(1 << 1); // Set pin PB1 to LOW.
    184e:	29 98       	cbi	0x05, 1	; 5
    1850:	08 95       	ret

00001852 <tone>:
void tone_init(){
		DDRB |= (1 << 1); // Set pin PB1 to OUTPUT
	
}

void tone(unsigned long frequency, uint8_t volume) {
    1852:	cf 92       	push	r12
    1854:	df 92       	push	r13
    1856:	ef 92       	push	r14
    1858:	ff 92       	push	r15
    185a:	cf 93       	push	r28
    185c:	df 93       	push	r29
    185e:	6b 01       	movw	r12, r22
    1860:	7c 01       	movw	r14, r24
	if (frequency == 0 || volume == 0) { noTone(); return; } // If frequency or volume are 0, turn off sound and return.
    1862:	61 15       	cp	r22, r1
    1864:	71 05       	cpc	r23, r1
    1866:	81 05       	cpc	r24, r1
    1868:	91 05       	cpc	r25, r1
    186a:	11 f0       	breq	.+4      	; 0x1870 <tone+0x1e>
    186c:	41 11       	cpse	r20, r1
    186e:	02 c0       	rjmp	.+4      	; 0x1874 <tone+0x22>
    1870:	e8 df       	rcall	.-48     	; 0x1842 <noTone>
    1872:	4d c0       	rjmp	.+154    	; 0x190e <tone+0xbc>
    1874:	d4 2f       	mov	r29, r20
    1876:	4b 30       	cpi	r20, 0x0B	; 11
    1878:	08 f0       	brcs	.+2      	; 0x187c <tone+0x2a>
    187a:	da e0       	ldi	r29, 0x0A	; 10
	if (volume > 10) volume = 10;                              // Make sure volume is in range (1 to 10).
		

		uint8_t prescaler = _BV(CS10);                 // Try using prescaler 1 first.
		unsigned long top = F_CPU / frequency / 2 - 1; // Calculate the top.
    187c:	60 e0       	ldi	r22, 0x00	; 0
    187e:	72 e1       	ldi	r23, 0x12	; 18
    1880:	8a e7       	ldi	r24, 0x7A	; 122
    1882:	90 e0       	ldi	r25, 0x00	; 0
    1884:	a7 01       	movw	r20, r14
    1886:	96 01       	movw	r18, r12
    1888:	bd d0       	rcall	.+378    	; 0x1a04 <__udivmodsi4>
    188a:	cc 24       	eor	r12, r12
    188c:	ca 94       	dec	r12
    188e:	dc 2c       	mov	r13, r12
    1890:	76 01       	movw	r14, r12
    1892:	c2 0e       	add	r12, r18
    1894:	d3 1e       	adc	r13, r19
    1896:	e4 1e       	adc	r14, r20
    1898:	f5 1e       	adc	r15, r21
		if (top > 65535) {                             // If not in the range for prescaler 1, use prescaler 256 (122 Hz and lower @ 16 MHz).
    189a:	c1 14       	cp	r12, r1
    189c:	d1 04       	cpc	r13, r1
    189e:	81 e0       	ldi	r24, 0x01	; 1
    18a0:	e8 06       	cpc	r14, r24
    18a2:	f1 04       	cpc	r15, r1
    18a4:	58 f0       	brcs	.+22     	; 0x18bc <tone+0x6a>
			prescaler = _BV(CS12);                       // Set the 256 prescaler bit.
			top = top / 256 - 1;                         // Calculate the top using prescaler 256.
    18a6:	cd 2c       	mov	r12, r13
    18a8:	de 2c       	mov	r13, r14
    18aa:	ef 2c       	mov	r14, r15
    18ac:	ff 24       	eor	r15, r15
    18ae:	81 e0       	ldi	r24, 0x01	; 1
    18b0:	c8 1a       	sub	r12, r24
    18b2:	d1 08       	sbc	r13, r1
    18b4:	e1 08       	sbc	r14, r1
    18b6:	f1 08       	sbc	r15, r1
		

		uint8_t prescaler = _BV(CS10);                 // Try using prescaler 1 first.
		unsigned long top = F_CPU / frequency / 2 - 1; // Calculate the top.
		if (top > 65535) {                             // If not in the range for prescaler 1, use prescaler 256 (122 Hz and lower @ 16 MHz).
			prescaler = _BV(CS12);                       // Set the 256 prescaler bit.
    18b8:	c4 e0       	ldi	r28, 0x04	; 4
    18ba:	01 c0       	rjmp	.+2      	; 0x18be <tone+0x6c>
void tone(unsigned long frequency, uint8_t volume) {
	if (frequency == 0 || volume == 0) { noTone(); return; } // If frequency or volume are 0, turn off sound and return.
	if (volume > 10) volume = 10;                              // Make sure volume is in range (1 to 10).
		

		uint8_t prescaler = _BV(CS10);                 // Try using prescaler 1 first.
    18bc:	c1 e0       	ldi	r28, 0x01	; 1
		if (top > 65535) {                             // If not in the range for prescaler 1, use prescaler 256 (122 Hz and lower @ 16 MHz).
			prescaler = _BV(CS12);                       // Set the 256 prescaler bit.
			top = top / 256 - 1;                         // Calculate the top using prescaler 256.
		}
	
		unsigned int duty = top / _tAC_volume[volume - 1]; // Calculate the duty cycle (volume).
    18be:	ed 2f       	mov	r30, r29
    18c0:	f0 e0       	ldi	r31, 0x00	; 0
    18c2:	ed 5f       	subi	r30, 0xFD	; 253
    18c4:	fe 4f       	sbci	r31, 0xFE	; 254
    18c6:	20 81       	ld	r18, Z
    18c8:	30 e0       	ldi	r19, 0x00	; 0
    18ca:	40 e0       	ldi	r20, 0x00	; 0
    18cc:	50 e0       	ldi	r21, 0x00	; 0
    18ce:	c7 01       	movw	r24, r14
    18d0:	b6 01       	movw	r22, r12
    18d2:	98 d0       	rcall	.+304    	; 0x1a04 <__udivmodsi4>
		
		ICR1   = top;							// Set the top.
    18d4:	d0 92 87 00 	sts	0x0087, r13
    18d8:	c0 92 86 00 	sts	0x0086, r12
		if (TCNT1 > top) TCNT1 = top;			// Counter over the top, put within range.
    18dc:	80 91 84 00 	lds	r24, 0x0084
    18e0:	90 91 85 00 	lds	r25, 0x0085
    18e4:	a0 e0       	ldi	r26, 0x00	; 0
    18e6:	b0 e0       	ldi	r27, 0x00	; 0
    18e8:	c8 16       	cp	r12, r24
    18ea:	d9 06       	cpc	r13, r25
    18ec:	ea 06       	cpc	r14, r26
    18ee:	fb 06       	cpc	r15, r27
    18f0:	20 f4       	brcc	.+8      	; 0x18fa <tone+0xa8>
    18f2:	d0 92 85 00 	sts	0x0085, r13
    18f6:	c0 92 84 00 	sts	0x0084, r12
			TCCR1B = _BV(WGM13)  | prescaler;   // Set PWM, phase and frequency corrected (top=ICR1) and prescaler.
    18fa:	c0 61       	ori	r28, 0x10	; 16
    18fc:	c0 93 81 00 	sts	0x0081, r28
			OCR1A  = duty;						// Set the duty cycle (volume).
    1900:	30 93 89 00 	sts	0x0089, r19
    1904:	20 93 88 00 	sts	0x0088, r18
			TCCR1A = _BV(COM1A1);				// Clear OC1A/OC1B on Compare Match (Set output to low level).
    1908:	80 e8       	ldi	r24, 0x80	; 128
    190a:	80 93 80 00 	sts	0x0080, r24

}
    190e:	df 91       	pop	r29
    1910:	cf 91       	pop	r28
    1912:	ff 90       	pop	r15
    1914:	ef 90       	pop	r14
    1916:	df 90       	pop	r13
    1918:	cf 90       	pop	r12
    191a:	08 95       	ret

0000191c <__vector_18>:
ISR(UART0_RECEIVE_INTERRUPT)
/*************************************************************************
Function: UART Receive Complete interrupt
Purpose:  called when the UART has received a character
**************************************************************************/
{
    191c:	1f 92       	push	r1
    191e:	0f 92       	push	r0
    1920:	0f b6       	in	r0, 0x3f	; 63
    1922:	0f 92       	push	r0
    1924:	11 24       	eor	r1, r1
    1926:	2f 93       	push	r18
    1928:	3f 93       	push	r19
    192a:	4f 93       	push	r20
    192c:	5f 93       	push	r21
    192e:	8f 93       	push	r24
    1930:	9f 93       	push	r25
    1932:	ef 93       	push	r30
    1934:	ff 93       	push	r31
    uint8_t data;
    uint8_t usr;
    uint8_t lastRxError;
 
    /* read UART status register and UART data register */ 
    usr  = UART0_STATUS;
    1936:	40 91 c0 00 	lds	r20, 0x00C0
    data = UART0_DATA;
    193a:	50 91 c6 00 	lds	r21, 0x00C6
#if defined( AT90_UART )
    lastRxError = (usr & (_BV(FE)|_BV(DOR)) );
#elif defined( ATMEGA_USART )
    lastRxError = (usr & (_BV(FE)|_BV(DOR)) );
#elif defined( ATMEGA_USART0 )
    lastRxError = (usr & (_BV(FE0)|_BV(DOR0)) );
    193e:	48 71       	andi	r20, 0x18	; 24
#elif defined ( ATMEGA_UART )
    lastRxError = (usr & (_BV(FE)|_BV(DOR)) );
#endif
        
    /* calculate buffer index */ 
    tmphead = ( UART_RxHead + 1) & UART_RX0_BUFFER_MASK;
    1940:	80 91 93 01 	lds	r24, 0x0193
    1944:	90 e0       	ldi	r25, 0x00	; 0
    1946:	01 96       	adiw	r24, 0x01	; 1
    1948:	8f 77       	andi	r24, 0x7F	; 127
    194a:	99 27       	eor	r25, r25
    
    if ( tmphead == UART_RxTail ) {
    194c:	20 91 92 01 	lds	r18, 0x0192
    1950:	30 e0       	ldi	r19, 0x00	; 0
    1952:	28 17       	cp	r18, r24
    1954:	39 07       	cpc	r19, r25
    1956:	39 f0       	breq	.+14     	; 0x1966 <__vector_18+0x4a>
        /* error: receive buffer overflow */
        lastRxError = UART_BUFFER_OVERFLOW >> 8;
    } else {
        /* store new index */
        UART_RxHead = tmphead;
    1958:	80 93 93 01 	sts	0x0193, r24
        /* store received data in buffer */
        UART_RxBuf[tmphead] = data;
    195c:	fc 01       	movw	r30, r24
    195e:	ea 56       	subi	r30, 0x6A	; 106
    1960:	fe 4f       	sbci	r31, 0xFE	; 254
    1962:	50 83       	st	Z, r21
    1964:	01 c0       	rjmp	.+2      	; 0x1968 <__vector_18+0x4c>
    /* calculate buffer index */ 
    tmphead = ( UART_RxHead + 1) & UART_RX0_BUFFER_MASK;
    
    if ( tmphead == UART_RxTail ) {
        /* error: receive buffer overflow */
        lastRxError = UART_BUFFER_OVERFLOW >> 8;
    1966:	42 e0       	ldi	r20, 0x02	; 2
        /* store new index */
        UART_RxHead = tmphead;
        /* store received data in buffer */
        UART_RxBuf[tmphead] = data;
    }
    UART_LastRxError = lastRxError;   
    1968:	40 93 91 01 	sts	0x0191, r20
}
    196c:	ff 91       	pop	r31
    196e:	ef 91       	pop	r30
    1970:	9f 91       	pop	r25
    1972:	8f 91       	pop	r24
    1974:	5f 91       	pop	r21
    1976:	4f 91       	pop	r20
    1978:	3f 91       	pop	r19
    197a:	2f 91       	pop	r18
    197c:	0f 90       	pop	r0
    197e:	0f be       	out	0x3f, r0	; 63
    1980:	0f 90       	pop	r0
    1982:	1f 90       	pop	r1
    1984:	18 95       	reti

00001986 <__vector_19>:
ISR(UART0_TRANSMIT_INTERRUPT)
/*************************************************************************
Function: UART Data Register Empty interrupt
Purpose:  called when the UART is ready to transmit the next byte
**************************************************************************/
{
    1986:	1f 92       	push	r1
    1988:	0f 92       	push	r0
    198a:	0f b6       	in	r0, 0x3f	; 63
    198c:	0f 92       	push	r0
    198e:	11 24       	eor	r1, r1
    1990:	8f 93       	push	r24
    1992:	9f 93       	push	r25
    1994:	ef 93       	push	r30
    1996:	ff 93       	push	r31
    uint16_t tmptail;

    if ( UART_TxHead != UART_TxTail) {
    1998:	90 91 95 01 	lds	r25, 0x0195
    199c:	80 91 94 01 	lds	r24, 0x0194
    19a0:	98 17       	cp	r25, r24
    19a2:	79 f0       	breq	.+30     	; 0x19c2 <__vector_19+0x3c>
        /* calculate and store new buffer index */
        tmptail = (UART_TxTail + 1) & UART_TX0_BUFFER_MASK;
    19a4:	80 91 94 01 	lds	r24, 0x0194
    19a8:	90 e0       	ldi	r25, 0x00	; 0
    19aa:	01 96       	adiw	r24, 0x01	; 1
    19ac:	8f 77       	andi	r24, 0x7F	; 127
    19ae:	99 27       	eor	r25, r25
        UART_TxTail = tmptail;
    19b0:	80 93 94 01 	sts	0x0194, r24
        /* get one byte from buffer and write it to UART */
        UART0_DATA = UART_TxBuf[tmptail];  /* start transmission */
    19b4:	fc 01       	movw	r30, r24
    19b6:	ea 5e       	subi	r30, 0xEA	; 234
    19b8:	fd 4f       	sbci	r31, 0xFD	; 253
    19ba:	80 81       	ld	r24, Z
    19bc:	80 93 c6 00 	sts	0x00C6, r24
    19c0:	05 c0       	rjmp	.+10     	; 0x19cc <__vector_19+0x46>
    } else {
        /* tx buffer empty, disable UDRE interrupt */
        UART0_CONTROL &= ~_BV(UART0_UDRIE);
    19c2:	e1 ec       	ldi	r30, 0xC1	; 193
    19c4:	f0 e0       	ldi	r31, 0x00	; 0
    19c6:	80 81       	ld	r24, Z
    19c8:	8f 7d       	andi	r24, 0xDF	; 223
    19ca:	80 83       	st	Z, r24
    }
}
    19cc:	ff 91       	pop	r31
    19ce:	ef 91       	pop	r30
    19d0:	9f 91       	pop	r25
    19d2:	8f 91       	pop	r24
    19d4:	0f 90       	pop	r0
    19d6:	0f be       	out	0x3f, r0	; 63
    19d8:	0f 90       	pop	r0
    19da:	1f 90       	pop	r1
    19dc:	18 95       	reti

000019de <__divmodhi4>:
    19de:	97 fb       	bst	r25, 7
    19e0:	07 2e       	mov	r0, r23
    19e2:	16 f4       	brtc	.+4      	; 0x19e8 <__divmodhi4+0xa>
    19e4:	00 94       	com	r0
    19e6:	06 d0       	rcall	.+12     	; 0x19f4 <__divmodhi4_neg1>
    19e8:	77 fd       	sbrc	r23, 7
    19ea:	08 d0       	rcall	.+16     	; 0x19fc <__divmodhi4_neg2>
    19ec:	2d d0       	rcall	.+90     	; 0x1a48 <__udivmodhi4>
    19ee:	07 fc       	sbrc	r0, 7
    19f0:	05 d0       	rcall	.+10     	; 0x19fc <__divmodhi4_neg2>
    19f2:	3e f4       	brtc	.+14     	; 0x1a02 <__divmodhi4_exit>

000019f4 <__divmodhi4_neg1>:
    19f4:	90 95       	com	r25
    19f6:	81 95       	neg	r24
    19f8:	9f 4f       	sbci	r25, 0xFF	; 255
    19fa:	08 95       	ret

000019fc <__divmodhi4_neg2>:
    19fc:	70 95       	com	r23
    19fe:	61 95       	neg	r22
    1a00:	7f 4f       	sbci	r23, 0xFF	; 255

00001a02 <__divmodhi4_exit>:
    1a02:	08 95       	ret

00001a04 <__udivmodsi4>:
    1a04:	a1 e2       	ldi	r26, 0x21	; 33
    1a06:	1a 2e       	mov	r1, r26
    1a08:	aa 1b       	sub	r26, r26
    1a0a:	bb 1b       	sub	r27, r27
    1a0c:	fd 01       	movw	r30, r26
    1a0e:	0d c0       	rjmp	.+26     	; 0x1a2a <__udivmodsi4_ep>

00001a10 <__udivmodsi4_loop>:
    1a10:	aa 1f       	adc	r26, r26
    1a12:	bb 1f       	adc	r27, r27
    1a14:	ee 1f       	adc	r30, r30
    1a16:	ff 1f       	adc	r31, r31
    1a18:	a2 17       	cp	r26, r18
    1a1a:	b3 07       	cpc	r27, r19
    1a1c:	e4 07       	cpc	r30, r20
    1a1e:	f5 07       	cpc	r31, r21
    1a20:	20 f0       	brcs	.+8      	; 0x1a2a <__udivmodsi4_ep>
    1a22:	a2 1b       	sub	r26, r18
    1a24:	b3 0b       	sbc	r27, r19
    1a26:	e4 0b       	sbc	r30, r20
    1a28:	f5 0b       	sbc	r31, r21

00001a2a <__udivmodsi4_ep>:
    1a2a:	66 1f       	adc	r22, r22
    1a2c:	77 1f       	adc	r23, r23
    1a2e:	88 1f       	adc	r24, r24
    1a30:	99 1f       	adc	r25, r25
    1a32:	1a 94       	dec	r1
    1a34:	69 f7       	brne	.-38     	; 0x1a10 <__udivmodsi4_loop>
    1a36:	60 95       	com	r22
    1a38:	70 95       	com	r23
    1a3a:	80 95       	com	r24
    1a3c:	90 95       	com	r25
    1a3e:	9b 01       	movw	r18, r22
    1a40:	ac 01       	movw	r20, r24
    1a42:	bd 01       	movw	r22, r26
    1a44:	cf 01       	movw	r24, r30
    1a46:	08 95       	ret

00001a48 <__udivmodhi4>:
    1a48:	aa 1b       	sub	r26, r26
    1a4a:	bb 1b       	sub	r27, r27
    1a4c:	51 e1       	ldi	r21, 0x11	; 17
    1a4e:	07 c0       	rjmp	.+14     	; 0x1a5e <__udivmodhi4_ep>

00001a50 <__udivmodhi4_loop>:
    1a50:	aa 1f       	adc	r26, r26
    1a52:	bb 1f       	adc	r27, r27
    1a54:	a6 17       	cp	r26, r22
    1a56:	b7 07       	cpc	r27, r23
    1a58:	10 f0       	brcs	.+4      	; 0x1a5e <__udivmodhi4_ep>
    1a5a:	a6 1b       	sub	r26, r22
    1a5c:	b7 0b       	sbc	r27, r23

00001a5e <__udivmodhi4_ep>:
    1a5e:	88 1f       	adc	r24, r24
    1a60:	99 1f       	adc	r25, r25
    1a62:	5a 95       	dec	r21
    1a64:	a9 f7       	brne	.-22     	; 0x1a50 <__udivmodhi4_loop>
    1a66:	80 95       	com	r24
    1a68:	90 95       	com	r25
    1a6a:	bc 01       	movw	r22, r24
    1a6c:	cd 01       	movw	r24, r26
    1a6e:	08 95       	ret

00001a70 <memcpy>:
    1a70:	fb 01       	movw	r30, r22
    1a72:	dc 01       	movw	r26, r24
    1a74:	02 c0       	rjmp	.+4      	; 0x1a7a <memcpy+0xa>
    1a76:	01 90       	ld	r0, Z+
    1a78:	0d 92       	st	X+, r0
    1a7a:	41 50       	subi	r20, 0x01	; 1
    1a7c:	50 40       	sbci	r21, 0x00	; 0
    1a7e:	d8 f7       	brcc	.-10     	; 0x1a76 <memcpy+0x6>
    1a80:	08 95       	ret

00001a82 <_exit>:
    1a82:	f8 94       	cli

00001a84 <__stop_program>:
    1a84:	ff cf       	rjmp	.-2      	; 0x1a84 <__stop_program>
